
UEFISelfRep.efi:	file format coff-arm64

Disassembly of section .text:

0000000000001000 <.text>:
    1000: fd 7b bd a9  	stp	x29, x30, [sp, #-48]!
    1004: fd 03 00 91  	mov	x29, sp
    1008: e0 0f 00 f9  	str	x0, [sp, #24]
    100c: e1 0b 00 f9  	str	x1, [sp, #16]
    1010: 00 00 00 f0  	adrp	x0, 0x4000 <.text+0x1c>
    1014: 00 b0 34 91  	add	x0, x0, #3372
    1018: 00 00 40 b9  	ldr	w0, [x0]
    101c: 1f 00 00 71  	cmp	w0, #0
    1020: 60 01 00 54  	b.eq	0x104c <.text+0x4c>
    1024: e0 0b 40 f9  	ldr	x0, [sp, #16]
    1028: 01 08 40 b9  	ldr	w1, [x0, #8]
    102c: 00 00 00 f0  	adrp	x0, 0x4000 <.text+0x38>
    1030: 00 b0 34 91  	add	x0, x0, #3372
    1034: 00 00 40 b9  	ldr	w0, [x0]
    1038: 3f 00 00 6b  	cmp	w1, w0
    103c: 82 00 00 54  	b.hs	0x104c <.text+0x4c>
    1040: 20 03 80 d2  	mov	x0, #25
    1044: 00 00 f0 f2  	movk	x0, #32768, lsl #48
    1048: 0c 00 00 14  	b	0x1078 <.text+0x78>
    104c: e1 0b 40 f9  	ldr	x1, [sp, #16]
    1050: e0 0f 40 f9  	ldr	x0, [sp, #24]
    1054: 0b 00 00 94  	bl	0x1080 <.text+0x80>
    1058: e1 0b 40 f9  	ldr	x1, [sp, #16]
    105c: e0 0f 40 f9  	ldr	x0, [sp, #24]
    1060: b1 00 00 94  	bl	0x1324 <.text+0x324>
    1064: e0 17 00 f9  	str	x0, [sp, #40]
    1068: e1 0b 40 f9  	ldr	x1, [sp, #16]
    106c: e0 0f 40 f9  	ldr	x0, [sp, #24]
    1070: 87 00 00 94  	bl	0x128c <.text+0x28c>
    1074: e0 17 40 f9  	ldr	x0, [sp, #40]
    1078: fd 7b c3 a8  	ldp	x29, x30, [sp], #48
    107c: c0 03 5f d6  	ret
    1080: fd 7b bd a9  	stp	x29, x30, [sp, #-48]!
    1084: fd 03 00 91  	mov	x29, sp
    1088: e0 0f 00 f9  	str	x0, [sp, #24]
    108c: e1 0b 00 f9  	str	x1, [sp, #16]
    1090: e1 0b 40 f9  	ldr	x1, [sp, #16]
    1094: e0 0f 40 f9  	ldr	x0, [sp, #24]
    1098: 76 02 00 94  	bl	0x1a70 <.text+0xa70>
    109c: e0 17 00 f9  	str	x0, [sp, #40]
    10a0: 4d 02 00 94  	bl	0x19d4 <.text+0x9d4>
    10a4: 00 1c 00 12  	and	w0, w0, #0xff
    10a8: 1f 00 00 71  	cmp	w0, #0
    10ac: 00 03 00 54  	b.eq	0x110c <.text+0x10c>
    10b0: e0 17 40 f9  	ldr	x0, [sp, #40]
    10b4: 1f 00 00 f1  	cmp	x0, #0
    10b8: aa 02 00 54  	b.ge	0x110c <.text+0x10c>
    10bc: 4e 02 00 94  	bl	0x19f4 <.text+0x9f4>
    10c0: 00 1c 00 12  	and	w0, w0, #0xff
    10c4: 1f 00 00 71  	cmp	w0, #0
    10c8: 60 01 00 54  	b.eq	0x10f4 <.text+0xf4>
    10cc: 00 00 b0 d2  	mov	x0, #2147483648
    10d0: 51 02 00 94  	bl	0x1a14 <.text+0xa14>
    10d4: 00 1c 00 12  	and	w0, w0, #0xff
    10d8: 1f 00 00 71  	cmp	w0, #0
    10dc: c0 00 00 54  	b.eq	0x10f4 <.text+0xf4>
    10e0: e2 17 40 f9  	ldr	x2, [sp, #40]
    10e4: 00 00 00 f0  	adrp	x0, 0x4000 <.text+0xf0>
    10e8: 01 20 0c 91  	add	x1, x0, #776
    10ec: 00 00 b0 d2  	mov	x0, #2147483648
    10f0: 6d 01 00 94  	bl	0x16a4 <.text+0x6a4>
    10f4: 00 00 00 f0  	adrp	x0, 0x4000 <.text+0x100>
    10f8: 02 c0 0c 91  	add	x2, x0, #816
    10fc: a1 1f 80 d2  	mov	x1, #253
    1100: 00 00 00 f0  	adrp	x0, 0x4000 <.text+0x10c>
    1104: 00 60 0d 91  	add	x0, x0, #856
    1108: f2 01 00 94  	bl	0x18d0 <.text+0x8d0>
    110c: e1 0b 40 f9  	ldr	x1, [sp, #16]
    1110: e0 0f 40 f9  	ldr	x0, [sp, #24]
    1114: 80 02 00 94  	bl	0x1b14 <.text+0xb14>
    1118: e0 17 00 f9  	str	x0, [sp, #40]
    111c: 2e 02 00 94  	bl	0x19d4 <.text+0x9d4>
    1120: 00 1c 00 12  	and	w0, w0, #0xff
    1124: 1f 00 00 71  	cmp	w0, #0
    1128: 00 03 00 54  	b.eq	0x1188 <.text+0x188>
    112c: e0 17 40 f9  	ldr	x0, [sp, #40]
    1130: 1f 00 00 f1  	cmp	x0, #0
    1134: aa 02 00 54  	b.ge	0x1188 <.text+0x188>
    1138: 2f 02 00 94  	bl	0x19f4 <.text+0x9f4>
    113c: 00 1c 00 12  	and	w0, w0, #0xff
    1140: 1f 00 00 71  	cmp	w0, #0
    1144: 60 01 00 54  	b.eq	0x1170 <.text+0x170>
    1148: 00 00 b0 d2  	mov	x0, #2147483648
    114c: 32 02 00 94  	bl	0x1a14 <.text+0xa14>
    1150: 00 1c 00 12  	and	w0, w0, #0xff
    1154: 1f 00 00 71  	cmp	w0, #0
    1158: c0 00 00 54  	b.eq	0x1170 <.text+0x170>
    115c: e2 17 40 f9  	ldr	x2, [sp, #40]
    1160: 00 00 00 f0  	adrp	x0, 0x4000 <.text+0x16c>
    1164: 01 20 0c 91  	add	x1, x0, #776
    1168: 00 00 b0 d2  	mov	x0, #2147483648
    116c: 4e 01 00 94  	bl	0x16a4 <.text+0x6a4>
    1170: 00 00 00 f0  	adrp	x0, 0x4000 <.text+0x17c>
    1174: 02 c0 0c 91  	add	x2, x0, #816
    1178: 01 20 80 d2  	mov	x1, #256
    117c: 00 00 00 f0  	adrp	x0, 0x4000 <.text+0x188>
    1180: 00 60 0d 91  	add	x0, x0, #856
    1184: d3 01 00 94  	bl	0x18d0 <.text+0x8d0>
    1188: e1 0b 40 f9  	ldr	x1, [sp, #16]
    118c: e0 0f 40 f9  	ldr	x0, [sp, #24]
    1190: a2 02 00 94  	bl	0x1c18 <.text+0xc18>
    1194: e0 17 00 f9  	str	x0, [sp, #40]
    1198: 0f 02 00 94  	bl	0x19d4 <.text+0x9d4>
    119c: 00 1c 00 12  	and	w0, w0, #0xff
    11a0: 1f 00 00 71  	cmp	w0, #0
    11a4: 00 03 00 54  	b.eq	0x1204 <.text+0x204>
    11a8: e0 17 40 f9  	ldr	x0, [sp, #40]
    11ac: 1f 00 00 f1  	cmp	x0, #0
    11b0: aa 02 00 54  	b.ge	0x1204 <.text+0x204>
    11b4: 10 02 00 94  	bl	0x19f4 <.text+0x9f4>
    11b8: 00 1c 00 12  	and	w0, w0, #0xff
    11bc: 1f 00 00 71  	cmp	w0, #0
    11c0: 60 01 00 54  	b.eq	0x11ec <.text+0x1ec>
    11c4: 00 00 b0 d2  	mov	x0, #2147483648
    11c8: 13 02 00 94  	bl	0x1a14 <.text+0xa14>
    11cc: 00 1c 00 12  	and	w0, w0, #0xff
    11d0: 1f 00 00 71  	cmp	w0, #0
    11d4: c0 00 00 54  	b.eq	0x11ec <.text+0x1ec>
    11d8: e2 17 40 f9  	ldr	x2, [sp, #40]
    11dc: 00 00 00 f0  	adrp	x0, 0x4000 <.text+0x1e8>
    11e0: 01 20 0c 91  	add	x1, x0, #776
    11e4: 00 00 b0 d2  	mov	x0, #2147483648
    11e8: 2f 01 00 94  	bl	0x16a4 <.text+0x6a4>
    11ec: 00 00 00 f0  	adrp	x0, 0x4000 <.text+0x1f8>
    11f0: 02 c0 0c 91  	add	x2, x0, #816
    11f4: 61 20 80 d2  	mov	x1, #259
    11f8: 00 00 00 f0  	adrp	x0, 0x4000 <.text+0x204>
    11fc: 00 60 0d 91  	add	x0, x0, #856
    1200: b4 01 00 94  	bl	0x18d0 <.text+0x8d0>
    1204: e1 0b 40 f9  	ldr	x1, [sp, #16]
    1208: e0 0f 40 f9  	ldr	x0, [sp, #24]
    120c: 31 03 00 94  	bl	0x1ed0 <.text+0xed0>
    1210: e0 17 00 f9  	str	x0, [sp, #40]
    1214: f0 01 00 94  	bl	0x19d4 <.text+0x9d4>
    1218: 00 1c 00 12  	and	w0, w0, #0xff
    121c: 1f 00 00 71  	cmp	w0, #0
    1220: 00 03 00 54  	b.eq	0x1280 <.text+0x280>
    1224: e0 17 40 f9  	ldr	x0, [sp, #40]
    1228: 1f 00 00 f1  	cmp	x0, #0
    122c: aa 02 00 54  	b.ge	0x1280 <.text+0x280>
    1230: f1 01 00 94  	bl	0x19f4 <.text+0x9f4>
    1234: 00 1c 00 12  	and	w0, w0, #0xff
    1238: 1f 00 00 71  	cmp	w0, #0
    123c: 60 01 00 54  	b.eq	0x1268 <.text+0x268>
    1240: 00 00 b0 d2  	mov	x0, #2147483648
    1244: f4 01 00 94  	bl	0x1a14 <.text+0xa14>
    1248: 00 1c 00 12  	and	w0, w0, #0xff
    124c: 1f 00 00 71  	cmp	w0, #0
    1250: c0 00 00 54  	b.eq	0x1268 <.text+0x268>
    1254: e2 17 40 f9  	ldr	x2, [sp, #40]
    1258: 00 00 00 f0  	adrp	x0, 0x4000 <.text+0x264>
    125c: 01 20 0c 91  	add	x1, x0, #776
    1260: 00 00 b0 d2  	mov	x0, #2147483648
    1264: 10 01 00 94  	bl	0x16a4 <.text+0x6a4>
    1268: 00 00 00 f0  	adrp	x0, 0x4000 <.text+0x274>
    126c: 02 c0 0c 91  	add	x2, x0, #816
    1270: c1 20 80 d2  	mov	x1, #262
    1274: 00 00 00 f0  	adrp	x0, 0x4000 <.text+0x280>
    1278: 00 60 0d 91  	add	x0, x0, #856
    127c: 95 01 00 94  	bl	0x18d0 <.text+0x8d0>
    1280: 1f 20 03 d5  	nop
    1284: fd 7b c3 a8  	ldp	x29, x30, [sp], #48
    1288: c0 03 5f d6  	ret
    128c: fd 7b bd a9  	stp	x29, x30, [sp, #-48]!
    1290: fd 03 00 91  	mov	x29, sp
    1294: e0 0f 00 f9  	str	x0, [sp, #24]
    1298: e1 0b 00 f9  	str	x1, [sp, #16]
    129c: e1 0b 40 f9  	ldr	x1, [sp, #16]
    12a0: e0 0f 40 f9  	ldr	x0, [sp, #24]
    12a4: 09 02 00 94  	bl	0x1ac8 <.text+0xac8>
    12a8: e0 17 00 f9  	str	x0, [sp, #40]
    12ac: ca 01 00 94  	bl	0x19d4 <.text+0x9d4>
    12b0: 00 1c 00 12  	and	w0, w0, #0xff
    12b4: 1f 00 00 71  	cmp	w0, #0
    12b8: 00 03 00 54  	b.eq	0x1318 <.text+0x318>
    12bc: e0 17 40 f9  	ldr	x0, [sp, #40]
    12c0: 1f 00 00 f1  	cmp	x0, #0
    12c4: aa 02 00 54  	b.ge	0x1318 <.text+0x318>
    12c8: cb 01 00 94  	bl	0x19f4 <.text+0x9f4>
    12cc: 00 1c 00 12  	and	w0, w0, #0xff
    12d0: 1f 00 00 71  	cmp	w0, #0
    12d4: 60 01 00 54  	b.eq	0x1300 <.text+0x300>
    12d8: 00 00 b0 d2  	mov	x0, #2147483648
    12dc: ce 01 00 94  	bl	0x1a14 <.text+0xa14>
    12e0: 00 1c 00 12  	and	w0, w0, #0xff
    12e4: 1f 00 00 71  	cmp	w0, #0
    12e8: c0 00 00 54  	b.eq	0x1300 <.text+0x300>
    12ec: e2 17 40 f9  	ldr	x2, [sp, #40]
    12f0: 00 00 00 f0  	adrp	x0, 0x4000 <.text+0x2fc>
    12f4: 01 20 0c 91  	add	x1, x0, #776
    12f8: 00 00 b0 d2  	mov	x0, #2147483648
    12fc: ea 00 00 94  	bl	0x16a4 <.text+0x6a4>
    1300: 00 00 00 f0  	adrp	x0, 0x4000 <.text+0x30c>
    1304: 02 c0 0c 91  	add	x2, x0, #816
    1308: a1 23 80 d2  	mov	x1, #285
    130c: 00 00 00 f0  	adrp	x0, 0x4000 <.text+0x318>
    1310: 00 60 0d 91  	add	x0, x0, #856
    1314: 6f 01 00 94  	bl	0x18d0 <.text+0x8d0>
    1318: 1f 20 03 d5  	nop
    131c: fd 7b c3 a8  	ldp	x29, x30, [sp], #48
    1320: c0 03 5f d6  	ret
    1324: fd 7b be a9  	stp	x29, x30, [sp, #-32]!
    1328: fd 03 00 91  	mov	x29, sp
    132c: e0 0f 00 f9  	str	x0, [sp, #24]
    1330: e1 0b 00 f9  	str	x1, [sp, #16]
    1334: e1 0b 40 f9  	ldr	x1, [sp, #16]
    1338: e0 0f 40 f9  	ldr	x0, [sp, #24]
    133c: 03 00 00 94  	bl	0x1348 <.text+0x348>
    1340: fd 7b c2 a8  	ldp	x29, x30, [sp], #32
    1344: c0 03 5f d6  	ret
    1348: fd 7b b6 a9  	stp	x29, x30, [sp, #-160]!
    134c: fd 03 00 91  	mov	x29, sp
    1350: e0 0f 00 f9  	str	x0, [sp, #24]
    1354: e1 0b 00 f9  	str	x1, [sp, #16]
    1358: e0 0b 40 f9  	ldr	x0, [sp, #16]
    135c: 00 30 40 f9  	ldr	x0, [x0, #96]
    1360: e0 4b 00 f9  	str	x0, [sp, #144]
    1364: 20 34 86 52  	mov	w0, #12705
    1368: 60 63 ab 72  	movk	w0, #23323, lsl #16
    136c: e0 63 00 b9  	str	w0, [sp, #96]
    1370: a0 53 8d 12  	mov	w0, #-27294
    1374: e0 cb 00 79  	strh	w0, [sp, #100]
    1378: 40 3a 82 52  	mov	w0, #4562
    137c: e0 cf 00 79  	strh	w0, [sp, #102]
    1380: c0 f1 87 d2  	mov	x0, #16270
    1384: 00 00 b4 f2  	movk	x0, #40960, lsl #16
    1388: 20 39 cd f2  	movk	x0, #27081, lsl #32
    138c: 40 6e e7 f2  	movk	x0, #15218, lsl #48
    1390: e0 37 00 f9  	str	x0, [sp, #104]
    1394: e0 4b 40 f9  	ldr	x0, [sp, #144]
    1398: 06 8c 40 f9  	ldr	x6, [x0, #280]
    139c: e1 c3 01 91  	add	x1, sp, #112
    13a0: e0 83 01 91  	add	x0, sp, #96
    13a4: 25 00 80 52  	mov	w5, #1
    13a8: 04 00 80 d2  	mov	x4, #0
    13ac: e3 0f 40 f9  	ldr	x3, [sp, #24]
    13b0: e2 03 01 aa  	mov	x2, x1
    13b4: e1 03 00 aa  	mov	x1, x0
    13b8: e0 0f 40 f9  	ldr	x0, [sp, #24]
    13bc: c0 00 3f d6  	blr	x6
    13c0: e0 4f 00 f9  	str	x0, [sp, #152]
    13c4: e0 4f 40 f9  	ldr	x0, [sp, #152]
    13c8: 1f 00 00 f1  	cmp	x0, #0
    13cc: 61 16 00 54  	b.ne	0x1698 <.text+0x698>
    13d0: e0 c3 01 91  	add	x0, sp, #112
    13d4: e1 03 00 aa  	mov	x1, x0
    13d8: 00 00 00 f0  	adrp	x0, 0x4000 <.text+0x3e4>
    13dc: 00 c0 34 91  	add	x0, x0, #3376
    13e0: 8f 02 00 94  	bl	0x1e1c <.text+0xe1c>
    13e4: e0 3b 40 f9  	ldr	x0, [sp, #112]
    13e8: 00 0c 40 f9  	ldr	x0, [x0, #24]
    13ec: e0 47 00 f9  	str	x0, [sp, #136]
    13f0: e0 3b 40 f9  	ldr	x0, [sp, #112]
    13f4: 00 24 40 f9  	ldr	x0, [x0, #72]
    13f8: e0 43 00 f9  	str	x0, [sp, #128]
    13fc: 40 64 8b 52  	mov	w0, #23330
    1400: c0 c9 b2 72  	movk	w0, #38478, lsl #16
    1404: e0 4b 00 b9  	str	w0, [sp, #72]
    1408: 20 8b 8c 52  	mov	w0, #25689
    140c: e0 9b 00 79  	strh	w0, [sp, #76]
    1410: 40 3a 82 52  	mov	w0, #4562
    1414: e0 9f 00 79  	strh	w0, [sp, #78]
    1418: c0 31 87 d2  	mov	x0, #14734
    141c: 00 00 b4 f2  	movk	x0, #40960, lsl #16
    1420: 20 39 cd f2  	movk	x0, #27081, lsl #32
    1424: 40 6e e7 f2  	movk	x0, #15218, lsl #48
    1428: e0 2b 00 f9  	str	x0, [sp, #80]
    142c: e0 4b 40 f9  	ldr	x0, [sp, #144]
    1430: 06 8c 40 f9  	ldr	x6, [x0, #280]
    1434: e1 63 01 91  	add	x1, sp, #88
    1438: e0 23 01 91  	add	x0, sp, #72
    143c: 25 00 80 52  	mov	w5, #1
    1440: 04 00 80 d2  	mov	x4, #0
    1444: e3 0f 40 f9  	ldr	x3, [sp, #24]
    1448: e2 03 01 aa  	mov	x2, x1
    144c: e1 03 00 aa  	mov	x1, x0
    1450: e0 47 40 f9  	ldr	x0, [sp, #136]
    1454: c0 00 3f d6  	blr	x6
    1458: e0 4f 00 f9  	str	x0, [sp, #152]
    145c: e0 4f 40 f9  	ldr	x0, [sp, #152]
    1460: 1f 00 00 f1  	cmp	x0, #0
    1464: c1 00 00 54  	b.ne	0x147c <.text+0x47c>
    1468: e0 c3 01 91  	add	x0, sp, #112
    146c: e1 03 00 aa  	mov	x1, x0
    1470: 00 00 00 f0  	adrp	x0, 0x4000 <.text+0x47c>
    1474: 00 60 37 91  	add	x0, x0, #3544
    1478: 69 02 00 94  	bl	0x1e1c <.text+0xe1c>
    147c: e0 2f 40 f9  	ldr	x0, [sp, #88]
    1480: 02 04 40 f9  	ldr	x2, [x0, #8]
    1484: e0 2f 40 f9  	ldr	x0, [sp, #88]
    1488: e1 03 01 91  	add	x1, sp, #64
    148c: 40 00 3f d6  	blr	x2
    1490: e0 4f 00 f9  	str	x0, [sp, #152]
    1494: e0 4f 40 f9  	ldr	x0, [sp, #152]
    1498: 1f 00 00 f1  	cmp	x0, #0
    149c: 81 0f 00 54  	b.ne	0x168c <.text+0x68c>
    14a0: ff 1f 00 f9  	str	xzr, [sp, #56]
    14a4: ff 1b 00 f9  	str	xzr, [sp, #48]
    14a8: ff 3f 00 f9  	str	xzr, [sp, #120]
    14ac: e0 43 40 f9  	ldr	x0, [sp, #128]
    14b0: e0 17 00 f9  	str	x0, [sp, #40]
    14b4: e0 23 40 f9  	ldr	x0, [sp, #64]
    14b8: 05 04 40 f9  	ldr	x5, [x0, #8]
    14bc: e6 23 40 f9  	ldr	x6, [sp, #64]
    14c0: e1 e3 00 91  	add	x1, sp, #56
    14c4: e4 3f 40 f9  	ldr	x4, [sp, #120]
    14c8: 23 00 80 d2  	mov	x3, #1
    14cc: 00 00 00 f0  	adrp	x0, 0x4000 <.text+0x4d8>
    14d0: 02 20 3a 91  	add	x2, x0, #3720
    14d4: e0 03 06 aa  	mov	x0, x6
    14d8: a0 00 3f d6  	blr	x5
    14dc: e0 4f 00 f9  	str	x0, [sp, #152]
    14e0: e0 4f 40 f9  	ldr	x0, [sp, #152]
    14e4: 1f 00 00 f1  	cmp	x0, #0
    14e8: a1 0c 00 54  	b.ne	0x167c <.text+0x67c>
    14ec: 00 00 00 f0  	adrp	x0, 0x4000 <.text+0x4f8>
    14f0: 00 c0 3a 91  	add	x0, x0, #3760
    14f4: 4a 02 00 94  	bl	0x1e1c <.text+0xe1c>
    14f8: e0 4b 40 f9  	ldr	x0, [sp, #144]
    14fc: 03 20 40 f9  	ldr	x3, [x0, #64]
    1500: e0 17 40 f9  	ldr	x0, [sp, #40]
    1504: e1 83 00 91  	add	x1, sp, #32
    1508: e2 03 01 aa  	mov	x2, x1
    150c: e1 03 00 aa  	mov	x1, x0
    1510: 00 00 80 52  	mov	w0, #0
    1514: 60 00 3f d6  	blr	x3
    1518: e0 4f 00 f9  	str	x0, [sp, #152]
    151c: e0 4f 40 f9  	ldr	x0, [sp, #152]
    1520: 1f 00 00 f1  	cmp	x0, #0
    1524: 81 00 00 54  	b.ne	0x1534 <.text+0x534>
    1528: 00 00 00 f0  	adrp	x0, 0x4000 <.text+0x534>
    152c: 00 c0 3b 91  	add	x0, x0, #3824
    1530: 3b 02 00 94  	bl	0x1e1c <.text+0xe1c>
    1534: e0 1f 40 f9  	ldr	x0, [sp, #56]
    1538: 03 10 40 f9  	ldr	x3, [x0, #32]
    153c: e0 1f 40 f9  	ldr	x0, [sp, #56]
    1540: e2 13 40 f9  	ldr	x2, [sp, #32]
    1544: e1 a3 00 91  	add	x1, sp, #40
    1548: 60 00 3f d6  	blr	x3
    154c: e0 4f 00 f9  	str	x0, [sp, #152]
    1550: e0 4f 40 f9  	ldr	x0, [sp, #152]
    1554: 1f 00 00 f1  	cmp	x0, #0
    1558: 81 00 00 54  	b.ne	0x1568 <.text+0x568>
    155c: 00 00 00 f0  	adrp	x0, 0x4000 <.text+0x568>
    1560: 00 20 3d 91  	add	x0, x0, #3912
    1564: 2e 02 00 94  	bl	0x1e1c <.text+0xe1c>
    1568: e0 23 40 f9  	ldr	x0, [sp, #64]
    156c: 05 04 40 f9  	ldr	x5, [x0, #8]
    1570: e6 23 40 f9  	ldr	x6, [sp, #64]
    1574: e1 c3 00 91  	add	x1, sp, #48
    1578: 04 00 80 d2  	mov	x4, #0
    157c: e3 0b 41 b2  	mov	x3, #-9223372036854775805
    1580: 00 00 00 f0  	adrp	x0, 0x4000 <.text+0x58c>
    1584: 02 a0 3e 91  	add	x2, x0, #4008
    1588: e0 03 06 aa  	mov	x0, x6
    158c: a0 00 3f d6  	blr	x5
    1590: e0 4f 00 f9  	str	x0, [sp, #152]
    1594: e0 4f 40 f9  	ldr	x0, [sp, #152]
    1598: 1f 00 00 f1  	cmp	x0, #0
    159c: aa 00 00 54  	b.ge	0x15b0 <.text+0x5b0>
    15a0: 00 00 00 f0  	adrp	x0, 0x4000 <.text+0x5ac>
    15a4: 00 e0 3e 91  	add	x0, x0, #4024
    15a8: 1d 02 00 94  	bl	0x1e1c <.text+0xe1c>
    15ac: 07 00 00 14  	b	0x15c8 <.text+0x5c8>
    15b0: e0 4f 40 f9  	ldr	x0, [sp, #152]
    15b4: 1f 00 00 f1  	cmp	x0, #0
    15b8: 81 00 00 54  	b.ne	0x15c8 <.text+0x5c8>
    15bc: 20 00 00 90  	adrp	x0, 0x5000 <.text+0x5cc>
    15c0: 00 00 00 91  	add	x0, x0, #0
    15c4: 16 02 00 94  	bl	0x1e1c <.text+0xe1c>
    15c8: e0 1b 40 f9  	ldr	x0, [sp, #48]
    15cc: 03 14 40 f9  	ldr	x3, [x0, #40]
    15d0: e0 1b 40 f9  	ldr	x0, [sp, #48]
    15d4: e2 13 40 f9  	ldr	x2, [sp, #32]
    15d8: e1 a3 00 91  	add	x1, sp, #40
    15dc: 60 00 3f d6  	blr	x3
    15e0: e0 4f 00 f9  	str	x0, [sp, #152]
    15e4: e0 4f 40 f9  	ldr	x0, [sp, #152]
    15e8: 1f 00 00 f1  	cmp	x0, #0
    15ec: aa 00 00 54  	b.ge	0x1600 <.text+0x600>
    15f0: 20 00 00 90  	adrp	x0, 0x5000 <.text+0x600>
    15f4: 00 40 01 91  	add	x0, x0, #80
    15f8: 09 02 00 94  	bl	0x1e1c <.text+0xe1c>
    15fc: 07 00 00 14  	b	0x1618 <.text+0x618>
    1600: e0 4f 40 f9  	ldr	x0, [sp, #152]
    1604: 1f 00 00 f1  	cmp	x0, #0
    1608: 81 00 00 54  	b.ne	0x1618 <.text+0x618>
    160c: 20 00 00 90  	adrp	x0, 0x5000 <.text+0x61c>
    1610: 00 60 02 91  	add	x0, x0, #152
    1614: 02 02 00 94  	bl	0x1e1c <.text+0xe1c>
    1618: e0 1b 40 f9  	ldr	x0, [sp, #48]
    161c: 01 08 40 f9  	ldr	x1, [x0, #16]
    1620: e0 1b 40 f9  	ldr	x0, [sp, #48]
    1624: 20 00 3f d6  	blr	x1
    1628: e0 4f 00 f9  	str	x0, [sp, #152]
    162c: e0 4f 40 f9  	ldr	x0, [sp, #152]
    1630: 1f 00 00 f1  	cmp	x0, #0
    1634: 8a 00 00 54  	b.ge	0x1644 <.text+0x644>
    1638: 20 00 00 90  	adrp	x0, 0x5000 <.text+0x648>
    163c: 00 a0 03 91  	add	x0, x0, #232
    1640: f7 01 00 94  	bl	0x1e1c <.text+0xe1c>
    1644: e0 4b 40 f9  	ldr	x0, [sp, #144]
    1648: 01 24 40 f9  	ldr	x1, [x0, #72]
    164c: e0 13 40 f9  	ldr	x0, [sp, #32]
    1650: 20 00 3f d6  	blr	x1
    1654: e0 1f 40 f9  	ldr	x0, [sp, #56]
    1658: 01 08 40 f9  	ldr	x1, [x0, #16]
    165c: e0 1f 40 f9  	ldr	x0, [sp, #56]
    1660: 20 00 3f d6  	blr	x1
    1664: e0 4f 00 f9  	str	x0, [sp, #152]
    1668: e0 23 40 f9  	ldr	x0, [sp, #64]
    166c: 01 08 40 f9  	ldr	x1, [x0, #16]
    1670: e0 23 40 f9  	ldr	x0, [sp, #64]
    1674: 20 00 3f d6  	blr	x1
    1678: 08 00 00 14  	b	0x1698 <.text+0x698>
    167c: 20 00 00 90  	adrp	x0, 0x5000 <.text+0x68c>
    1680: 00 c0 04 91  	add	x0, x0, #304
    1684: e6 01 00 94  	bl	0x1e1c <.text+0xe1c>
    1688: 04 00 00 14  	b	0x1698 <.text+0x698>
    168c: 20 00 00 90  	adrp	x0, 0x5000 <.text+0x69c>
    1690: 00 a0 06 91  	add	x0, x0, #424
    1694: e2 01 00 94  	bl	0x1e1c <.text+0xe1c>
    1698: e0 4f 40 f9  	ldr	x0, [sp, #152]
    169c: fd 7b ca a8  	ldp	x29, x30, [sp], #160
    16a0: c0 03 5f d6  	ret
    16a4: fd 7b af a9  	stp	x29, x30, [sp, #-272]!
    16a8: fd 03 00 91  	mov	x29, sp
    16ac: e0 1f 00 f9  	str	x0, [sp, #56]
    16b0: e1 1b 00 f9  	str	x1, [sp, #48]
    16b4: e2 73 00 f9  	str	x2, [sp, #224]
    16b8: e3 77 00 f9  	str	x3, [sp, #232]
    16bc: e4 7b 00 f9  	str	x4, [sp, #240]
    16c0: e5 7f 00 f9  	str	x5, [sp, #248]
    16c4: e6 83 00 f9  	str	x6, [sp, #256]
    16c8: e7 87 00 f9  	str	x7, [sp, #264]
    16cc: e0 1b 80 3d  	str	q0, [sp, #96]
    16d0: e1 1f 80 3d  	str	q1, [sp, #112]
    16d4: e2 23 80 3d  	str	q2, [sp, #128]
    16d8: e3 27 80 3d  	str	q3, [sp, #144]
    16dc: e4 2b 80 3d  	str	q4, [sp, #160]
    16e0: e5 2f 80 3d  	str	q5, [sp, #176]
    16e4: e6 33 80 3d  	str	q6, [sp, #192]
    16e8: e7 37 80 3d  	str	q7, [sp, #208]
    16ec: e0 43 04 91  	add	x0, sp, #272
    16f0: e0 23 00 f9  	str	x0, [sp, #64]
    16f4: e0 43 04 91  	add	x0, sp, #272
    16f8: e0 27 00 f9  	str	x0, [sp, #72]
    16fc: e0 83 03 91  	add	x0, sp, #224
    1700: e0 2b 00 f9  	str	x0, [sp, #80]
    1704: e0 05 80 12  	mov	w0, #-48
    1708: e0 5b 00 b9  	str	w0, [sp, #88]
    170c: e0 0f 80 12  	mov	w0, #-128
    1710: e0 5f 00 b9  	str	w0, [sp, #92]
    1714: e0 43 00 91  	add	x0, sp, #16
    1718: e1 03 01 91  	add	x1, sp, #64
    171c: 20 04 40 ad  	ldp	q0, q1, [x1]
    1720: 00 04 00 ad  	stp	q0, q1, [x0]
    1724: e0 43 00 91  	add	x0, sp, #16
    1728: e2 03 00 aa  	mov	x2, x0
    172c: e1 1b 40 f9  	ldr	x1, [sp, #48]
    1730: e0 1f 40 f9  	ldr	x0, [sp, #56]
    1734: 53 00 00 94  	bl	0x1880 <.text+0x880>
    1738: 1f 20 03 d5  	nop
    173c: fd 7b d1 a8  	ldp	x29, x30, [sp], #272
    1740: c0 03 5f d6  	ret
    1744: ff 83 09 d1  	sub	sp, sp, #608
    1748: fd 7b 00 a9  	stp	x29, x30, [sp]
    174c: fd 03 00 91  	mov	x29, sp
    1750: f3 0b 00 f9  	str	x19, [sp, #16]
    1754: e0 2f 00 f9  	str	x0, [sp, #88]
    1758: e1 2b 00 f9  	str	x1, [sp, #80]
    175c: f3 03 02 aa  	mov	x19, x2
    1760: e3 27 00 f9  	str	x3, [sp, #72]
    1764: 20 00 00 b0  	adrp	x0, 0x6000 <.text+0x778>
    1768: 00 20 00 91  	add	x0, x0, #8
    176c: 00 00 40 39  	ldrb	w0, [x0]
    1770: 1f 00 00 71  	cmp	w0, #0
    1774: e1 07 00 54  	b.ne	0x1870 <.text+0x870>
    1778: 97 00 00 94  	bl	0x19d4 <.text+0x9d4>
    177c: 00 1c 00 12  	and	w0, w0, #0xff
    1780: 1f 00 00 71  	cmp	w0, #0
    1784: 40 01 00 54  	b.eq	0x17ac <.text+0x7ac>
    1788: e0 2b 40 f9  	ldr	x0, [sp, #80]
    178c: 1f 00 00 f1  	cmp	x0, #0
    1790: e1 00 00 54  	b.ne	0x17ac <.text+0x7ac>
    1794: 00 00 00 f0  	adrp	x0, 0x4000 <.text+0x7a0>
    1798: 02 40 0f 91  	add	x2, x0, #976
    179c: a1 0b 80 d2  	mov	x1, #93
    17a0: 00 00 00 f0  	adrp	x0, 0x4000 <.text+0x7ac>
    17a4: 00 a0 0f 91  	add	x0, x0, #1000
    17a8: 4a 00 00 94  	bl	0x18d0 <.text+0x8d0>
    17ac: 7f 02 00 94  	bl	0x21a8 <.text+0x11a8>
    17b0: e1 03 00 2a  	mov	w1, w0
    17b4: e0 2f 40 f9  	ldr	x0, [sp, #88]
    17b8: 20 00 00 8a  	and	x0, x1, x0
    17bc: 1f 00 00 f1  	cmp	x0, #0
    17c0: 60 05 00 54  	b.eq	0x186c <.text+0x86c>
    17c4: e0 27 40 f9  	ldr	x0, [sp, #72]
    17c8: 1f 00 00 f1  	cmp	x0, #0
    17cc: 81 01 00 54  	b.ne	0x17fc <.text+0x7fc>
    17d0: e0 83 00 91  	add	x0, sp, #32
    17d4: e1 03 13 aa  	mov	x1, x19
    17d8: 20 04 40 ad  	ldp	q0, q1, [x1]
    17dc: 00 04 00 ad  	stp	q0, q1, [x0]
    17e0: e1 83 00 91  	add	x1, sp, #32
    17e4: e0 83 01 91  	add	x0, sp, #96
    17e8: e3 03 01 aa  	mov	x3, x1
    17ec: e2 2b 40 f9  	ldr	x2, [sp, #80]
    17f0: 01 40 80 d2  	mov	x1, #512
    17f4: a8 02 00 94  	bl	0x2294 <.text+0x1294>
    17f8: 06 00 00 14  	b	0x1810 <.text+0x810>
    17fc: e0 83 01 91  	add	x0, sp, #96
    1800: e3 27 40 f9  	ldr	x3, [sp, #72]
    1804: e2 2b 40 f9  	ldr	x2, [sp, #80]
    1808: 01 40 80 d2  	mov	x1, #512
    180c: cb 02 00 94  	bl	0x2338 <.text+0x1338>
    1810: 20 00 00 b0  	adrp	x0, 0x6000 <.text+0x824>
    1814: 00 60 00 91  	add	x0, x0, #24
    1818: 00 00 40 f9  	ldr	x0, [x0]
    181c: 1f 00 00 f1  	cmp	x0, #0
    1820: 80 02 00 54  	b.eq	0x1870 <.text+0x870>
    1824: 20 00 00 b0  	adrp	x0, 0x6000 <.text+0x838>
    1828: 00 60 00 91  	add	x0, x0, #24
    182c: 00 00 40 f9  	ldr	x0, [x0]
    1830: 00 20 40 f9  	ldr	x0, [x0, #64]
    1834: 1f 00 00 f1  	cmp	x0, #0
    1838: c0 01 00 54  	b.eq	0x1870 <.text+0x870>
    183c: 20 00 00 b0  	adrp	x0, 0x6000 <.text+0x850>
    1840: 00 60 00 91  	add	x0, x0, #24
    1844: 00 00 40 f9  	ldr	x0, [x0]
    1848: 00 20 40 f9  	ldr	x0, [x0, #64]
    184c: 02 04 40 f9  	ldr	x2, [x0, #8]
    1850: 20 00 00 b0  	adrp	x0, 0x6000 <.text+0x864>
    1854: 00 60 00 91  	add	x0, x0, #24
    1858: 00 00 40 f9  	ldr	x0, [x0]
    185c: 00 20 40 f9  	ldr	x0, [x0, #64]
    1860: e1 83 01 91  	add	x1, sp, #96
    1864: 40 00 3f d6  	blr	x2
    1868: 02 00 00 14  	b	0x1870 <.text+0x870>
    186c: 1f 20 03 d5  	nop
    1870: f3 0b 40 f9  	ldr	x19, [sp, #16]
    1874: fd 7b 40 a9  	ldp	x29, x30, [sp]
    1878: ff 83 09 91  	add	sp, sp, #608
    187c: c0 03 5f d6  	ret
    1880: fd 7b bb a9  	stp	x29, x30, [sp, #-80]!
    1884: fd 03 00 91  	mov	x29, sp
    1888: f3 0b 00 f9  	str	x19, [sp, #16]
    188c: e0 27 00 f9  	str	x0, [sp, #72]
    1890: e1 23 00 f9  	str	x1, [sp, #64]
    1894: f3 03 02 aa  	mov	x19, x2
    1898: e0 83 00 91  	add	x0, sp, #32
    189c: e1 03 13 aa  	mov	x1, x19
    18a0: 20 04 40 ad  	ldp	q0, q1, [x1]
    18a4: 00 04 00 ad  	stp	q0, q1, [x0]
    18a8: e0 83 00 91  	add	x0, sp, #32
    18ac: 03 00 80 d2  	mov	x3, #0
    18b0: e2 03 00 aa  	mov	x2, x0
    18b4: e1 23 40 f9  	ldr	x1, [sp, #64]
    18b8: e0 27 40 f9  	ldr	x0, [sp, #72]
    18bc: a2 ff ff 97  	bl	0x1744 <.text+0x744>
    18c0: 1f 20 03 d5  	nop
    18c4: f3 0b 40 f9  	ldr	x19, [sp, #16]
    18c8: fd 7b c5 a8  	ldp	x29, x30, [sp], #80
    18cc: c0 03 5f d6  	ret
    18d0: ff c3 08 d1  	sub	sp, sp, #560
    18d4: fd 7b 00 a9  	stp	x29, x30, [sp]
    18d8: fd 03 00 91  	mov	x29, sp
    18dc: e0 17 00 f9  	str	x0, [sp, #40]
    18e0: e1 13 00 f9  	str	x1, [sp, #32]
    18e4: e2 0f 00 f9  	str	x2, [sp, #24]
    18e8: 20 00 00 b0  	adrp	x0, 0x6000 <.text+0x8fc>
    18ec: 00 20 00 91  	add	x0, x0, #8
    18f0: 00 00 40 39  	ldrb	w0, [x0]
    18f4: 1f 00 00 71  	cmp	w0, #0
    18f8: 61 06 00 54  	b.ne	0x19c4 <.text+0x9c4>
    18fc: 20 00 00 b0  	adrp	x0, 0x6000 <.text+0x910>
    1900: 00 00 00 91  	add	x0, x0, #0
    1904: 00 00 40 f9  	ldr	x0, [x0]
    1908: e7 c3 00 91  	add	x7, sp, #48
    190c: e6 0f 40 f9  	ldr	x6, [sp, #24]
    1910: e5 13 40 f9  	ldr	x5, [sp, #32]
    1914: e4 17 40 f9  	ldr	x4, [sp, #40]
    1918: e3 03 00 aa  	mov	x3, x0
    191c: 00 00 00 f0  	adrp	x0, 0x4000 <.text+0x928>
    1920: 02 e0 10 91  	add	x2, x0, #1080
    1924: 01 40 80 d2  	mov	x1, #512
    1928: e0 03 07 aa  	mov	x0, x7
    192c: ad 02 00 94  	bl	0x23e0 <.text+0x13e0>
    1930: 20 00 00 b0  	adrp	x0, 0x6000 <.text+0x944>
    1934: 00 60 00 91  	add	x0, x0, #24
    1938: 00 00 40 f9  	ldr	x0, [x0]
    193c: 1f 00 00 f1  	cmp	x0, #0
    1940: 40 02 00 54  	b.eq	0x1988 <.text+0x988>
    1944: 20 00 00 b0  	adrp	x0, 0x6000 <.text+0x958>
    1948: 00 60 00 91  	add	x0, x0, #24
    194c: 00 00 40 f9  	ldr	x0, [x0]
    1950: 00 20 40 f9  	ldr	x0, [x0, #64]
    1954: 1f 00 00 f1  	cmp	x0, #0
    1958: 80 01 00 54  	b.eq	0x1988 <.text+0x988>
    195c: 20 00 00 b0  	adrp	x0, 0x6000 <.text+0x970>
    1960: 00 60 00 91  	add	x0, x0, #24
    1964: 00 00 40 f9  	ldr	x0, [x0]
    1968: 00 20 40 f9  	ldr	x0, [x0, #64]
    196c: 02 04 40 f9  	ldr	x2, [x0, #8]
    1970: 20 00 00 b0  	adrp	x0, 0x6000 <.text+0x984>
    1974: 00 60 00 91  	add	x0, x0, #24
    1978: 00 00 40 f9  	ldr	x0, [x0]
    197c: 00 20 40 f9  	ldr	x0, [x0, #64]
    1980: e1 c3 00 91  	add	x1, sp, #48
    1984: 40 00 3f d6  	blr	x2
    1988: 00 00 00 f0  	adrp	x0, 0x4000 <.text+0x994>
    198c: 00 80 34 91  	add	x0, x0, #3360
    1990: 00 00 40 39  	ldrb	w0, [x0]
    1994: 00 00 1c 12  	and	w0, w0, #0x10
    1998: 1f 00 00 71  	cmp	w0, #0
    199c: 60 00 00 54  	b.eq	0x19a8 <.text+0x9a8>
    19a0: 54 0a 00 94  	bl	0x42f0 <.text+0x32f0>
    19a4: 08 00 00 14  	b	0x19c4 <.text+0x9c4>
    19a8: 00 00 00 f0  	adrp	x0, 0x4000 <.text+0x9b4>
    19ac: 00 80 34 91  	add	x0, x0, #3360
    19b0: 00 00 40 39  	ldrb	w0, [x0]
    19b4: 00 00 1b 12  	and	w0, w0, #0x20
    19b8: 1f 00 00 71  	cmp	w0, #0
    19bc: 40 00 00 54  	b.eq	0x19c4 <.text+0x9c4>
    19c0: 4a 01 00 94  	bl	0x1ee8 <.text+0xee8>
    19c4: 1f 20 03 d5  	nop
    19c8: fd 7b 40 a9  	ldp	x29, x30, [sp]
    19cc: ff c3 08 91  	add	sp, sp, #560
    19d0: c0 03 5f d6  	ret
    19d4: 00 00 00 f0  	adrp	x0, 0x4000 <.text+0x9e0>
    19d8: 00 80 34 91  	add	x0, x0, #3360
    19dc: 00 00 40 39  	ldrb	w0, [x0]
    19e0: 00 00 00 12  	and	w0, w0, #0x1
    19e4: 1f 00 00 71  	cmp	w0, #0
    19e8: e0 07 9f 1a  	cset	w0, ne
    19ec: 00 1c 00 12  	and	w0, w0, #0xff
    19f0: c0 03 5f d6  	ret
    19f4: 00 00 00 f0  	adrp	x0, 0x4000 <.text+0xa00>
    19f8: 00 80 34 91  	add	x0, x0, #3360
    19fc: 00 00 40 39  	ldrb	w0, [x0]
    1a00: 00 00 1f 12  	and	w0, w0, #0x2
    1a04: 1f 00 00 71  	cmp	w0, #0
    1a08: e0 07 9f 1a  	cset	w0, ne
    1a0c: 00 1c 00 12  	and	w0, w0, #0xff
    1a10: c0 03 5f d6  	ret
    1a14: ff 43 00 d1  	sub	sp, sp, #16
    1a18: e0 07 00 f9  	str	x0, [sp, #8]
    1a1c: 00 00 00 f0  	adrp	x0, 0x4000 <.text+0xa28>
    1a20: 00 90 34 91  	add	x0, x0, #3364
    1a24: 00 00 40 b9  	ldr	w0, [x0]
    1a28: e1 03 00 2a  	mov	w1, w0
    1a2c: e0 07 40 f9  	ldr	x0, [sp, #8]
    1a30: 20 00 00 8a  	and	x0, x1, x0
    1a34: 1f 00 00 f1  	cmp	x0, #0
    1a38: e0 07 9f 1a  	cset	w0, ne
    1a3c: 00 1c 00 12  	and	w0, w0, #0xff
    1a40: ff 43 00 91  	add	sp, sp, #16
    1a44: c0 03 5f d6  	ret
    1a48: ff 43 00 d1  	sub	sp, sp, #16
    1a4c: e0 07 00 f9  	str	x0, [sp, #8]
    1a50: e1 03 00 f9  	str	x1, [sp]
    1a54: 20 00 00 b0  	adrp	x0, 0x6000 <.text+0xa68>
    1a58: 00 20 00 91  	add	x0, x0, #8
    1a5c: 21 00 80 52  	mov	w1, #1
    1a60: 01 00 00 39  	strb	w1, [x0]
    1a64: 1f 20 03 d5  	nop
    1a68: ff 43 00 91  	add	sp, sp, #16
    1a6c: c0 03 5f d6  	ret
    1a70: fd 7b be a9  	stp	x29, x30, [sp, #-32]!
    1a74: fd 03 00 91  	mov	x29, sp
    1a78: e0 0f 00 f9  	str	x0, [sp, #24]
    1a7c: e1 0b 00 f9  	str	x1, [sp, #16]
    1a80: 20 00 00 b0  	adrp	x0, 0x6000 <.text+0xa94>
    1a84: 00 60 00 91  	add	x0, x0, #24
    1a88: e1 0b 40 f9  	ldr	x1, [sp, #16]
    1a8c: 01 00 00 f9  	str	x1, [x0]
    1a90: e0 0b 40 f9  	ldr	x0, [sp, #16]
    1a94: 00 30 40 f9  	ldr	x0, [x0, #96]
    1a98: 05 28 40 f9  	ldr	x5, [x0, #80]
    1a9c: 20 00 00 b0  	adrp	x0, 0x6000 <.text+0xab0>
    1aa0: 04 40 00 91  	add	x4, x0, #16
    1aa4: 03 00 80 d2  	mov	x3, #0
    1aa8: 00 00 00 90  	adrp	x0, 0x1000 <.text+0xaa8>
    1aac: 02 20 29 91  	add	x2, x0, #2632
    1ab0: 01 02 80 d2  	mov	x1, #16
    1ab4: 20 40 80 52  	mov	w0, #513
    1ab8: a0 00 3f d6  	blr	x5
    1abc: 00 00 80 d2  	mov	x0, #0
    1ac0: fd 7b c2 a8  	ldp	x29, x30, [sp], #32
    1ac4: c0 03 5f d6  	ret
    1ac8: fd 7b be a9  	stp	x29, x30, [sp, #-32]!
    1acc: fd 03 00 91  	mov	x29, sp
    1ad0: e0 0f 00 f9  	str	x0, [sp, #24]
    1ad4: e1 0b 00 f9  	str	x1, [sp, #16]
    1ad8: 20 00 00 b0  	adrp	x0, 0x6000 <.text+0xaec>
    1adc: 00 40 00 91  	add	x0, x0, #16
    1ae0: 00 00 40 f9  	ldr	x0, [x0]
    1ae4: 1f 00 00 f1  	cmp	x0, #0
    1ae8: 00 01 00 54  	b.eq	0x1b08 <.text+0xb08>
    1aec: e0 0b 40 f9  	ldr	x0, [sp, #16]
    1af0: 00 30 40 f9  	ldr	x0, [x0, #96]
    1af4: 01 38 40 f9  	ldr	x1, [x0, #112]
    1af8: 20 00 00 b0  	adrp	x0, 0x6000 <.text+0xb0c>
    1afc: 00 40 00 91  	add	x0, x0, #16
    1b00: 00 00 40 f9  	ldr	x0, [x0]
    1b04: 20 00 3f d6  	blr	x1
    1b08: 00 00 80 d2  	mov	x0, #0
    1b0c: fd 7b c2 a8  	ldp	x29, x30, [sp], #32
    1b10: c0 03 5f d6  	ret
    1b14: fd 7b be a9  	stp	x29, x30, [sp, #-32]!
    1b18: fd 03 00 91  	mov	x29, sp
    1b1c: e0 0f 00 f9  	str	x0, [sp, #24]
    1b20: e1 0b 00 f9  	str	x1, [sp, #16]
    1b24: 20 00 00 b0  	adrp	x0, 0x6000 <.text+0xb38>
    1b28: 00 80 00 91  	add	x0, x0, #32
    1b2c: e1 0f 40 f9  	ldr	x1, [sp, #24]
    1b30: 01 00 00 f9  	str	x1, [x0]
    1b34: a8 ff ff 97  	bl	0x19d4 <.text+0x9d4>
    1b38: 00 1c 00 12  	and	w0, w0, #0xff
    1b3c: 1f 00 00 71  	cmp	w0, #0
    1b40: 80 01 00 54  	b.eq	0x1b70 <.text+0xb70>
    1b44: 20 00 00 b0  	adrp	x0, 0x6000 <.text+0xb58>
    1b48: 00 80 00 91  	add	x0, x0, #32
    1b4c: 00 00 40 f9  	ldr	x0, [x0]
    1b50: 1f 00 00 f1  	cmp	x0, #0
    1b54: e1 00 00 54  	b.ne	0x1b70 <.text+0xb70>
    1b58: 00 00 00 f0  	adrp	x0, 0x4000 <.text+0xb64>
    1b5c: 02 a0 11 91  	add	x2, x0, #1128
    1b60: 81 05 80 d2  	mov	x1, #44
    1b64: 00 00 00 f0  	adrp	x0, 0x4000 <.text+0xb70>
    1b68: 00 20 12 91  	add	x0, x0, #1160
    1b6c: 59 ff ff 97  	bl	0x18d0 <.text+0x8d0>
    1b70: 20 00 00 b0  	adrp	x0, 0x6000 <.text+0xb84>
    1b74: 00 a0 00 91  	add	x0, x0, #40
    1b78: e1 0b 40 f9  	ldr	x1, [sp, #16]
    1b7c: 01 00 00 f9  	str	x1, [x0]
    1b80: 95 ff ff 97  	bl	0x19d4 <.text+0x9d4>
    1b84: 00 1c 00 12  	and	w0, w0, #0xff
    1b88: 1f 00 00 71  	cmp	w0, #0
    1b8c: 80 01 00 54  	b.eq	0x1bbc <.text+0xbbc>
    1b90: 20 00 00 b0  	adrp	x0, 0x6000 <.text+0xba4>
    1b94: 00 a0 00 91  	add	x0, x0, #40
    1b98: 00 00 40 f9  	ldr	x0, [x0]
    1b9c: 1f 00 00 f1  	cmp	x0, #0
    1ba0: e1 00 00 54  	b.ne	0x1bbc <.text+0xbbc>
    1ba4: 00 00 00 f0  	adrp	x0, 0x4000 <.text+0xbb0>
    1ba8: 02 c0 13 91  	add	x2, x0, #1264
    1bac: 41 06 80 d2  	mov	x1, #50
    1bb0: 00 00 00 f0  	adrp	x0, 0x4000 <.text+0xbbc>
    1bb4: 00 20 12 91  	add	x0, x0, #1160
    1bb8: 46 ff ff 97  	bl	0x18d0 <.text+0x8d0>
    1bbc: e0 0b 40 f9  	ldr	x0, [sp, #16]
    1bc0: 01 30 40 f9  	ldr	x1, [x0, #96]
    1bc4: 20 00 00 b0  	adrp	x0, 0x6000 <.text+0xbd8>
    1bc8: 00 c0 00 91  	add	x0, x0, #48
    1bcc: 01 00 00 f9  	str	x1, [x0]
    1bd0: 81 ff ff 97  	bl	0x19d4 <.text+0x9d4>
    1bd4: 00 1c 00 12  	and	w0, w0, #0xff
    1bd8: 1f 00 00 71  	cmp	w0, #0
    1bdc: 80 01 00 54  	b.eq	0x1c0c <.text+0xc0c>
    1be0: 20 00 00 b0  	adrp	x0, 0x6000 <.text+0xbf4>
    1be4: 00 c0 00 91  	add	x0, x0, #48
    1be8: 00 00 40 f9  	ldr	x0, [x0]
    1bec: 1f 00 00 f1  	cmp	x0, #0
    1bf0: e1 00 00 54  	b.ne	0x1c0c <.text+0xc0c>
    1bf4: 00 00 00 f0  	adrp	x0, 0x4000 <.text+0xc00>
    1bf8: 02 20 14 91  	add	x2, x0, #1288
    1bfc: 01 07 80 d2  	mov	x1, #56
    1c00: 00 00 00 f0  	adrp	x0, 0x4000 <.text+0xc0c>
    1c04: 00 20 12 91  	add	x0, x0, #1160
    1c08: 32 ff ff 97  	bl	0x18d0 <.text+0x8d0>
    1c0c: 00 00 80 d2  	mov	x0, #0
    1c10: fd 7b c2 a8  	ldp	x29, x30, [sp], #32
    1c14: c0 03 5f d6  	ret
    1c18: fd 7b be a9  	stp	x29, x30, [sp, #-32]!
    1c1c: fd 03 00 91  	mov	x29, sp
    1c20: e0 0f 00 f9  	str	x0, [sp, #24]
    1c24: e1 0b 00 f9  	str	x1, [sp, #16]
    1c28: e0 0b 40 f9  	ldr	x0, [sp, #16]
    1c2c: 01 2c 40 f9  	ldr	x1, [x0, #88]
    1c30: 20 00 00 b0  	adrp	x0, 0x6000 <.text+0xc44>
    1c34: 00 e0 00 91  	add	x0, x0, #56
    1c38: 01 00 00 f9  	str	x1, [x0]
    1c3c: 66 ff ff 97  	bl	0x19d4 <.text+0x9d4>
    1c40: 00 1c 00 12  	and	w0, w0, #0xff
    1c44: 1f 00 00 71  	cmp	w0, #0
    1c48: 80 01 00 54  	b.eq	0x1c78 <.text+0xc78>
    1c4c: 20 00 00 b0  	adrp	x0, 0x6000 <.text+0xc60>
    1c50: 00 e0 00 91  	add	x0, x0, #56
    1c54: 00 00 40 f9  	ldr	x0, [x0]
    1c58: 1f 00 00 f1  	cmp	x0, #0
    1c5c: e1 00 00 54  	b.ne	0x1c78 <.text+0xc78>
    1c60: 00 00 00 f0  	adrp	x0, 0x4000 <.text+0xc6c>
    1c64: 02 80 14 91  	add	x2, x0, #1312
    1c68: 21 05 80 d2  	mov	x1, #41
    1c6c: 00 00 00 f0  	adrp	x0, 0x4000 <.text+0xc78>
    1c70: 00 e0 14 91  	add	x0, x0, #1336
    1c74: 17 ff ff 97  	bl	0x18d0 <.text+0x8d0>
    1c78: 00 00 80 d2  	mov	x0, #0
    1c7c: fd 7b c2 a8  	ldp	x29, x30, [sp], #32
    1c80: c0 03 5f d6  	ret
    1c84: fd 7b b9 a9  	stp	x29, x30, [sp, #-112]!
    1c88: fd 03 00 91  	mov	x29, sp
    1c8c: f3 0b 00 f9  	str	x19, [sp, #16]
    1c90: e0 27 00 f9  	str	x0, [sp, #72]
    1c94: e1 23 00 f9  	str	x1, [sp, #64]
    1c98: f3 03 02 aa  	mov	x19, x2
    1c9c: 4e ff ff 97  	bl	0x19d4 <.text+0x9d4>
    1ca0: 00 1c 00 12  	and	w0, w0, #0xff
    1ca4: 1f 00 00 71  	cmp	w0, #0
    1ca8: 40 01 00 54  	b.eq	0x1cd0 <.text+0xcd0>
    1cac: e0 27 40 f9  	ldr	x0, [sp, #72]
    1cb0: 1f 00 00 f1  	cmp	x0, #0
    1cb4: e1 00 00 54  	b.ne	0x1cd0 <.text+0xcd0>
    1cb8: 00 00 00 f0  	adrp	x0, 0x4000 <.text+0xcc4>
    1cbc: 02 40 0f 91  	add	x2, x0, #976
    1cc0: a1 07 80 d2  	mov	x1, #61
    1cc4: 00 00 00 f0  	adrp	x0, 0x4000 <.text+0xcd0>
    1cc8: 00 80 16 91  	add	x0, x0, #1440
    1ccc: 01 ff ff 97  	bl	0x18d0 <.text+0x8d0>
    1cd0: 41 ff ff 97  	bl	0x19d4 <.text+0x9d4>
    1cd4: 00 1c 00 12  	and	w0, w0, #0xff
    1cd8: 1f 00 00 71  	cmp	w0, #0
    1cdc: 60 01 00 54  	b.eq	0x1d08 <.text+0xd08>
    1ce0: e0 27 40 f9  	ldr	x0, [sp, #72]
    1ce4: 00 00 40 92  	and	x0, x0, #0x1
    1ce8: 1f 00 00 f1  	cmp	x0, #0
    1cec: e0 00 00 54  	b.eq	0x1d08 <.text+0xd08>
    1cf0: 00 00 00 f0  	adrp	x0, 0x4000 <.text+0xcfc>
    1cf4: 02 a0 17 91  	add	x2, x0, #1512
    1cf8: c1 07 80 d2  	mov	x1, #62
    1cfc: 00 00 00 f0  	adrp	x0, 0x4000 <.text+0xd08>
    1d00: 00 80 16 91  	add	x0, x0, #1440
    1d04: f3 fe ff 97  	bl	0x18d0 <.text+0x8d0>
    1d08: 33 ff ff 97  	bl	0x19d4 <.text+0x9d4>
    1d0c: 00 1c 00 12  	and	w0, w0, #0xff
    1d10: 1f 00 00 71  	cmp	w0, #0
    1d14: 40 01 00 54  	b.eq	0x1d3c <.text+0xd3c>
    1d18: e0 23 40 f9  	ldr	x0, [sp, #64]
    1d1c: 1f 00 00 f1  	cmp	x0, #0
    1d20: e1 00 00 54  	b.ne	0x1d3c <.text+0xd3c>
    1d24: 00 00 00 f0  	adrp	x0, 0x4000 <.text+0xd30>
    1d28: 02 40 18 91  	add	x2, x0, #1552
    1d2c: e1 07 80 d2  	mov	x1, #63
    1d30: 00 00 00 f0  	adrp	x0, 0x4000 <.text+0xd3c>
    1d34: 00 80 16 91  	add	x0, x0, #1440
    1d38: e6 fe ff 97  	bl	0x18d0 <.text+0x8d0>
    1d3c: 00 00 00 f0  	adrp	x0, 0x4000 <.text+0xd48>
    1d40: 00 a0 34 91  	add	x0, x0, #3368
    1d44: 00 00 40 b9  	ldr	w0, [x0]
    1d48: 00 04 00 11  	add	w0, w0, #1
    1d4c: e0 03 00 2a  	mov	w0, w0
    1d50: 00 f8 7f d3  	lsl	x0, x0, #1
    1d54: e0 33 00 f9  	str	x0, [sp, #96]
    1d58: e0 33 40 f9  	ldr	x0, [sp, #96]
    1d5c: 11 09 00 94  	bl	0x41a0 <.text+0x31a0>
    1d60: e0 2f 00 f9  	str	x0, [sp, #88]
    1d64: 1c ff ff 97  	bl	0x19d4 <.text+0x9d4>
    1d68: 00 1c 00 12  	and	w0, w0, #0xff
    1d6c: 1f 00 00 71  	cmp	w0, #0
    1d70: 40 01 00 54  	b.eq	0x1d98 <.text+0xd98>
    1d74: e0 2f 40 f9  	ldr	x0, [sp, #88]
    1d78: 1f 00 00 f1  	cmp	x0, #0
    1d7c: e1 00 00 54  	b.ne	0x1d98 <.text+0xd98>
    1d80: 00 00 00 f0  	adrp	x0, 0x4000 <.text+0xd8c>
    1d84: 02 40 11 91  	add	x2, x0, #1104
    1d88: 81 08 80 d2  	mov	x1, #68
    1d8c: 00 00 00 f0  	adrp	x0, 0x4000 <.text+0xd98>
    1d90: 00 80 16 91  	add	x0, x0, #1440
    1d94: cf fe ff 97  	bl	0x18d0 <.text+0x8d0>
    1d98: e0 83 00 91  	add	x0, sp, #32
    1d9c: e1 03 13 aa  	mov	x1, x19
    1da0: 20 04 40 ad  	ldp	q0, q1, [x1]
    1da4: 00 04 00 ad  	stp	q0, q1, [x0]
    1da8: e0 83 00 91  	add	x0, sp, #32
    1dac: e3 03 00 aa  	mov	x3, x0
    1db0: e2 27 40 f9  	ldr	x2, [sp, #72]
    1db4: e1 33 40 f9  	ldr	x1, [sp, #96]
    1db8: e0 2f 40 f9  	ldr	x0, [sp, #88]
    1dbc: ff 00 00 94  	bl	0x21b8 <.text+0x11b8>
    1dc0: e0 37 00 f9  	str	x0, [sp, #104]
    1dc4: e0 23 40 f9  	ldr	x0, [sp, #64]
    1dc8: 1f 00 00 f1  	cmp	x0, #0
    1dcc: c0 01 00 54  	b.eq	0x1e04 <.text+0xe04>
    1dd0: e0 37 40 f9  	ldr	x0, [sp, #104]
    1dd4: 1f 00 00 f1  	cmp	x0, #0
    1dd8: 60 01 00 54  	b.eq	0x1e04 <.text+0xe04>
    1ddc: e0 23 40 f9  	ldr	x0, [sp, #64]
    1de0: 02 04 40 f9  	ldr	x2, [x0, #8]
    1de4: e1 2f 40 f9  	ldr	x1, [sp, #88]
    1de8: e0 23 40 f9  	ldr	x0, [sp, #64]
    1dec: 40 00 3f d6  	blr	x2
    1df0: e0 2b 00 f9  	str	x0, [sp, #80]
    1df4: e0 2b 40 f9  	ldr	x0, [sp, #80]
    1df8: 1f 00 00 f1  	cmp	x0, #0
    1dfc: 4a 00 00 54  	b.ge	0x1e04 <.text+0xe04>
    1e00: ff 37 00 f9  	str	xzr, [sp, #104]
    1e04: e0 2f 40 f9  	ldr	x0, [sp, #88]
    1e08: ee 08 00 94  	bl	0x41c0 <.text+0x31c0>
    1e0c: e0 37 40 f9  	ldr	x0, [sp, #104]
    1e10: f3 0b 40 f9  	ldr	x19, [sp, #16]
    1e14: fd 7b c7 a8  	ldp	x29, x30, [sp], #112
    1e18: c0 03 5f d6  	ret
    1e1c: fd 7b ad a9  	stp	x29, x30, [sp, #-304]!
    1e20: fd 03 00 91  	mov	x29, sp
    1e24: e0 1f 00 f9  	str	x0, [sp, #56]
    1e28: e1 7f 00 f9  	str	x1, [sp, #248]
    1e2c: e2 83 00 f9  	str	x2, [sp, #256]
    1e30: e3 87 00 f9  	str	x3, [sp, #264]
    1e34: e4 8b 00 f9  	str	x4, [sp, #272]
    1e38: e5 8f 00 f9  	str	x5, [sp, #280]
    1e3c: e6 93 00 f9  	str	x6, [sp, #288]
    1e40: e7 97 00 f9  	str	x7, [sp, #296]
    1e44: e0 1f 80 3d  	str	q0, [sp, #112]
    1e48: e1 23 80 3d  	str	q1, [sp, #128]
    1e4c: e2 27 80 3d  	str	q2, [sp, #144]
    1e50: e3 2b 80 3d  	str	q3, [sp, #160]
    1e54: e4 2f 80 3d  	str	q4, [sp, #176]
    1e58: e5 33 80 3d  	str	q5, [sp, #192]
    1e5c: e6 37 80 3d  	str	q6, [sp, #208]
    1e60: e7 3b 80 3d  	str	q7, [sp, #224]
    1e64: e0 c3 04 91  	add	x0, sp, #304
    1e68: e0 27 00 f9  	str	x0, [sp, #72]
    1e6c: e0 c3 04 91  	add	x0, sp, #304
    1e70: e0 2b 00 f9  	str	x0, [sp, #80]
    1e74: e0 c3 03 91  	add	x0, sp, #240
    1e78: e0 2f 00 f9  	str	x0, [sp, #88]
    1e7c: e0 06 80 12  	mov	w0, #-56
    1e80: e0 63 00 b9  	str	w0, [sp, #96]
    1e84: e0 0f 80 12  	mov	w0, #-128
    1e88: e0 67 00 b9  	str	w0, [sp, #100]
    1e8c: 20 00 00 b0  	adrp	x0, 0x6000 <.text+0xea0>
    1e90: 00 a0 00 91  	add	x0, x0, #40
    1e94: 00 00 40 f9  	ldr	x0, [x0]
    1e98: 03 20 40 f9  	ldr	x3, [x0, #64]
    1e9c: e0 43 00 91  	add	x0, sp, #16
    1ea0: e1 23 01 91  	add	x1, sp, #72
    1ea4: 20 04 40 ad  	ldp	q0, q1, [x1]
    1ea8: 00 04 00 ad  	stp	q0, q1, [x0]
    1eac: e0 43 00 91  	add	x0, sp, #16
    1eb0: e2 03 00 aa  	mov	x2, x0
    1eb4: e1 03 03 aa  	mov	x1, x3
    1eb8: e0 1f 40 f9  	ldr	x0, [sp, #56]
    1ebc: 72 ff ff 97  	bl	0x1c84 <.text+0xc84>
    1ec0: e0 37 00 f9  	str	x0, [sp, #104]
    1ec4: e0 37 40 f9  	ldr	x0, [sp, #104]
    1ec8: fd 7b d3 a8  	ldp	x29, x30, [sp], #304
    1ecc: c0 03 5f d6  	ret
    1ed0: ff 43 00 d1  	sub	sp, sp, #16
    1ed4: e0 07 00 f9  	str	x0, [sp, #8]
    1ed8: e1 03 00 f9  	str	x1, [sp]
    1edc: 00 00 80 d2  	mov	x0, #0
    1ee0: ff 43 00 91  	add	sp, sp, #16
    1ee4: c0 03 5f d6  	ret
    1ee8: fd 7b be a9  	stp	x29, x30, [sp, #-32]!
    1eec: fd 03 00 91  	mov	x29, sp
    1ef0: ff 0f 00 f9  	str	xzr, [sp, #24]
    1ef4: 02 00 00 14  	b	0x1efc <.text+0xefc>
    1ef8: f8 08 00 94  	bl	0x42d8 <.text+0x32d8>
    1efc: e0 0f 40 f9  	ldr	x0, [sp, #24]
    1f00: 1f 00 00 f1  	cmp	x0, #0
    1f04: a0 ff ff 54  	b.eq	0x1ef8 <.text+0xef8>
    1f08: 1f 20 03 d5  	nop
    1f0c: 1f 20 03 d5  	nop
    1f10: fd 7b c2 a8  	ldp	x29, x30, [sp], #32
    1f14: c0 03 5f d6  	ret
    1f18: fd 7b bd a9  	stp	x29, x30, [sp, #-48]!
    1f1c: fd 03 00 91  	mov	x29, sp
    1f20: e0 0f 00 f9  	str	x0, [sp, #24]
    1f24: e1 0b 00 f9  	str	x1, [sp, #16]
    1f28: ab fe ff 97  	bl	0x19d4 <.text+0x9d4>
    1f2c: 00 1c 00 12  	and	w0, w0, #0xff
    1f30: 1f 00 00 71  	cmp	w0, #0
    1f34: 60 01 00 54  	b.eq	0x1f60 <.text+0xf60>
    1f38: e0 0f 40 f9  	ldr	x0, [sp, #24]
    1f3c: 00 00 40 92  	and	x0, x0, #0x1
    1f40: 1f 00 00 f1  	cmp	x0, #0
    1f44: e0 00 00 54  	b.eq	0x1f60 <.text+0xf60>
    1f48: 00 00 00 f0  	adrp	x0, 0x4000 <.text+0xf54>
    1f4c: 02 00 1a 91  	add	x2, x0, #1664
    1f50: c1 0f 80 d2  	mov	x1, #126
    1f54: 00 00 00 f0  	adrp	x0, 0x4000 <.text+0xf60>
    1f58: 00 a0 1a 91  	add	x0, x0, #1704
    1f5c: 5d fe ff 97  	bl	0x18d0 <.text+0x8d0>
    1f60: e0 0f 40 f9  	ldr	x0, [sp, #24]
    1f64: 1f 00 00 f1  	cmp	x0, #0
    1f68: 80 00 00 54  	b.eq	0x1f78 <.text+0xf78>
    1f6c: e0 0b 40 f9  	ldr	x0, [sp, #16]
    1f70: 1f 00 00 f1  	cmp	x0, #0
    1f74: 61 00 00 54  	b.ne	0x1f80 <.text+0xf80>
    1f78: 00 00 80 d2  	mov	x0, #0
    1f7c: 15 00 00 14  	b	0x1fd0 <.text+0xfd0>
    1f80: ff 17 00 f9  	str	xzr, [sp, #40]
    1f84: 0b 00 00 14  	b	0x1fb0 <.text+0xfb0>
    1f88: e0 0b 40 f9  	ldr	x0, [sp, #16]
    1f8c: 00 04 00 d1  	sub	x0, x0, #1
    1f90: e1 17 40 f9  	ldr	x1, [sp, #40]
    1f94: 3f 00 00 eb  	cmp	x1, x0
    1f98: 63 00 00 54  	b.lo	0x1fa4 <.text+0xfa4>
    1f9c: e0 0b 40 f9  	ldr	x0, [sp, #16]
    1fa0: 0c 00 00 14  	b	0x1fd0 <.text+0xfd0>
    1fa4: e0 17 40 f9  	ldr	x0, [sp, #40]
    1fa8: 00 04 00 91  	add	x0, x0, #1
    1fac: e0 17 00 f9  	str	x0, [sp, #40]
    1fb0: e0 17 40 f9  	ldr	x0, [sp, #40]
    1fb4: 00 f8 7f d3  	lsl	x0, x0, #1
    1fb8: e1 0f 40 f9  	ldr	x1, [sp, #24]
    1fbc: 20 00 00 8b  	add	x0, x1, x0
    1fc0: 00 00 40 79  	ldrh	w0, [x0]
    1fc4: 1f 00 00 71  	cmp	w0, #0
    1fc8: 01 fe ff 54  	b.ne	0x1f88 <.text+0xf88>
    1fcc: e0 17 40 f9  	ldr	x0, [sp, #40]
    1fd0: fd 7b c3 a8  	ldp	x29, x30, [sp], #48
    1fd4: c0 03 5f d6  	ret
    1fd8: ff 83 00 d1  	sub	sp, sp, #32
    1fdc: e0 07 00 f9  	str	x0, [sp, #8]
    1fe0: e1 03 00 f9  	str	x1, [sp]
    1fe4: e0 07 40 f9  	ldr	x0, [sp, #8]
    1fe8: 1f 00 00 f1  	cmp	x0, #0
    1fec: 80 00 00 54  	b.eq	0x1ffc <.text+0xffc>
    1ff0: e0 03 40 f9  	ldr	x0, [sp]
    1ff4: 1f 00 00 f1  	cmp	x0, #0
    1ff8: 61 00 00 54  	b.ne	0x2004 <.text+0x1004>
    1ffc: 00 00 80 d2  	mov	x0, #0
    2000: 14 00 00 14  	b	0x2050 <.text+0x1050>
    2004: ff 0f 00 f9  	str	xzr, [sp, #24]
    2008: 0b 00 00 14  	b	0x2034 <.text+0x1034>
    200c: e0 03 40 f9  	ldr	x0, [sp]
    2010: 00 04 00 d1  	sub	x0, x0, #1
    2014: e1 0f 40 f9  	ldr	x1, [sp, #24]
    2018: 3f 00 00 eb  	cmp	x1, x0
    201c: 63 00 00 54  	b.lo	0x2028 <.text+0x1028>
    2020: e0 03 40 f9  	ldr	x0, [sp]
    2024: 0b 00 00 14  	b	0x2050 <.text+0x1050>
    2028: e0 0f 40 f9  	ldr	x0, [sp, #24]
    202c: 00 04 00 91  	add	x0, x0, #1
    2030: e0 0f 00 f9  	str	x0, [sp, #24]
    2034: e1 07 40 f9  	ldr	x1, [sp, #8]
    2038: e0 0f 40 f9  	ldr	x0, [sp, #24]
    203c: 20 00 00 8b  	add	x0, x1, x0
    2040: 00 00 40 39  	ldrb	w0, [x0]
    2044: 1f 00 00 71  	cmp	w0, #0
    2048: 21 fe ff 54  	b.ne	0x200c <.text+0x100c>
    204c: e0 0f 40 f9  	ldr	x0, [sp, #24]
    2050: ff 83 00 91  	add	sp, sp, #32
    2054: c0 03 5f d6  	ret
    2058: fd 7b bd a9  	stp	x29, x30, [sp, #-48]!
    205c: fd 03 00 91  	mov	x29, sp
    2060: e0 0f 00 f9  	str	x0, [sp, #24]
    2064: 5c fe ff 97  	bl	0x19d4 <.text+0x9d4>
    2068: 00 1c 00 12  	and	w0, w0, #0xff
    206c: 1f 00 00 71  	cmp	w0, #0
    2070: 40 01 00 54  	b.eq	0x2098 <.text+0x1098>
    2074: e0 0f 40 f9  	ldr	x0, [sp, #24]
    2078: 1f 00 00 f1  	cmp	x0, #0
    207c: e1 00 00 54  	b.ne	0x2098 <.text+0x1098>
    2080: 00 00 00 d0  	adrp	x0, 0x4000 <.text+0x1088>
    2084: 02 40 11 91  	add	x2, x0, #1104
    2088: 81 04 80 d2  	mov	x1, #36
    208c: 00 00 00 d0  	adrp	x0, 0x4000 <.text+0x1094>
    2090: 00 40 1d 91  	add	x0, x0, #1872
    2094: 0f fe ff 97  	bl	0x18d0 <.text+0x8d0>
    2098: e0 0f 40 f9  	ldr	x0, [sp, #24]
    209c: 00 00 40 39  	ldrb	w0, [x0]
    20a0: e0 bf 00 39  	strb	w0, [sp, #47]
    20a4: e0 0f 40 f9  	ldr	x0, [sp, #24]
    20a8: 00 04 40 39  	ldrb	w0, [x0, #1]
    20ac: e0 bb 00 39  	strb	w0, [sp, #46]
    20b0: e0 bf 40 39  	ldrb	w0, [sp, #47]
    20b4: 00 1c 00 12  	and	w0, w0, #0xff
    20b8: 01 3c 00 13  	sxth	w1, w0
    20bc: e0 bb 40 39  	ldrb	w0, [sp, #46]
    20c0: 00 1c 00 12  	and	w0, w0, #0xff
    20c4: 00 3c 00 13  	sxth	w0, w0
    20c8: 00 1c 18 53  	ubfiz	w0, w0, #8, #8
    20cc: 00 3c 00 13  	sxth	w0, w0
    20d0: 20 00 00 2a  	orr	w0, w1, w0
    20d4: 00 3c 00 13  	sxth	w0, w0
    20d8: 00 3c 00 12  	and	w0, w0, #0xffff
    20dc: fd 7b c3 a8  	ldp	x29, x30, [sp], #48
    20e0: c0 03 5f d6  	ret
    20e4: fd 7b bd a9  	stp	x29, x30, [sp, #-48]!
    20e8: fd 03 00 91  	mov	x29, sp
    20ec: e0 0f 00 f9  	str	x0, [sp, #24]
    20f0: 39 fe ff 97  	bl	0x19d4 <.text+0x9d4>
    20f4: 00 1c 00 12  	and	w0, w0, #0xff
    20f8: 1f 00 00 71  	cmp	w0, #0
    20fc: 40 01 00 54  	b.eq	0x2124 <.text+0x1124>
    2100: e0 0f 40 f9  	ldr	x0, [sp, #24]
    2104: 1f 00 00 f1  	cmp	x0, #0
    2108: e1 00 00 54  	b.ne	0x2124 <.text+0x1124>
    210c: 00 00 00 d0  	adrp	x0, 0x4000 <.text+0x1114>
    2110: 02 40 11 91  	add	x2, x0, #1104
    2114: 01 13 80 d2  	mov	x1, #152
    2118: 00 00 00 d0  	adrp	x0, 0x4000 <.text+0x1120>
    211c: 00 40 1d 91  	add	x0, x0, #1872
    2120: ec fd ff 97  	bl	0x18d0 <.text+0x8d0>
    2124: e0 0f 40 f9  	ldr	x0, [sp, #24]
    2128: cc ff ff 97  	bl	0x2058 <.text+0x1058>
    212c: e0 5f 00 79  	strh	w0, [sp, #46]
    2130: e0 0f 40 f9  	ldr	x0, [sp, #24]
    2134: 00 08 00 91  	add	x0, x0, #2
    2138: c8 ff ff 97  	bl	0x2058 <.text+0x1058>
    213c: e0 5b 00 79  	strh	w0, [sp, #44]
    2140: e1 5f 40 79  	ldrh	w1, [sp, #46]
    2144: e0 5b 40 79  	ldrh	w0, [sp, #44]
    2148: 00 3c 10 53  	lsl	w0, w0, #16
    214c: 20 00 00 2a  	orr	w0, w1, w0
    2150: fd 7b c3 a8  	ldp	x29, x30, [sp], #48
    2154: c0 03 5f d6  	ret
    2158: ff 83 00 d1  	sub	sp, sp, #32
    215c: e0 0f 00 f9  	str	x0, [sp, #24]
    2160: e1 17 00 b9  	str	w1, [sp, #20]
    2164: e2 07 00 f9  	str	x2, [sp, #8]
    2168: e0 07 40 f9  	ldr	x0, [sp, #8]
    216c: 1f 00 00 f1  	cmp	x0, #0
    2170: 20 01 00 54  	b.eq	0x2194 <.text+0x1194>
    2174: e1 17 40 b9  	ldr	w1, [sp, #20]
    2178: e0 0f 40 f9  	ldr	x0, [sp, #24]
    217c: 02 08 c1 9a  	udiv	x2, x0, x1
    2180: 41 7c 01 9b  	mul	x1, x2, x1
    2184: 00 00 01 cb  	sub	x0, x0, x1
    2188: e1 03 00 2a  	mov	w1, w0
    218c: e0 07 40 f9  	ldr	x0, [sp, #8]
    2190: 01 00 00 b9  	str	w1, [x0]
    2194: e0 17 40 b9  	ldr	w0, [sp, #20]
    2198: e1 0f 40 f9  	ldr	x1, [sp, #24]
    219c: 20 08 c0 9a  	udiv	x0, x1, x0
    21a0: ff 83 00 91  	add	sp, sp, #32
    21a4: c0 03 5f d6  	ret
    21a8: 00 00 00 d0  	adrp	x0, 0x4000 <.text+0x11b0>
    21ac: 00 70 34 91  	add	x0, x0, #3356
    21b0: 00 00 40 b9  	ldr	w0, [x0]
    21b4: c0 03 5f d6  	ret
    21b8: fd 7b ba a9  	stp	x29, x30, [sp, #-96]!
    21bc: fd 03 00 91  	mov	x29, sp
    21c0: f3 0b 00 f9  	str	x19, [sp, #16]
    21c4: e0 2f 00 f9  	str	x0, [sp, #88]
    21c8: e1 2b 00 f9  	str	x1, [sp, #80]
    21cc: e2 27 00 f9  	str	x2, [sp, #72]
    21d0: f3 03 03 aa  	mov	x19, x3
    21d4: 00 fe ff 97  	bl	0x19d4 <.text+0x9d4>
    21d8: 00 1c 00 12  	and	w0, w0, #0xff
    21dc: 1f 00 00 71  	cmp	w0, #0
    21e0: 60 01 00 54  	b.eq	0x220c <.text+0x120c>
    21e4: e0 2f 40 f9  	ldr	x0, [sp, #88]
    21e8: 00 00 40 92  	and	x0, x0, #0x1
    21ec: 1f 00 00 f1  	cmp	x0, #0
    21f0: e0 00 00 54  	b.eq	0x220c <.text+0x120c>
    21f4: 00 00 00 d0  	adrp	x0, 0x4000 <.text+0x11fc>
    21f8: 02 60 1e 91  	add	x2, x0, #1944
    21fc: e1 08 80 d2  	mov	x1, #71
    2200: 00 00 00 d0  	adrp	x0, 0x4000 <.text+0x1208>
    2204: 00 00 1f 91  	add	x0, x0, #1984
    2208: b2 fd ff 97  	bl	0x18d0 <.text+0x8d0>
    220c: f2 fd ff 97  	bl	0x19d4 <.text+0x9d4>
    2210: 00 1c 00 12  	and	w0, w0, #0xff
    2214: 1f 00 00 71  	cmp	w0, #0
    2218: 60 01 00 54  	b.eq	0x2244 <.text+0x1244>
    221c: e0 27 40 f9  	ldr	x0, [sp, #72]
    2220: 00 00 40 92  	and	x0, x0, #0x1
    2224: 1f 00 00 f1  	cmp	x0, #0
    2228: e0 00 00 54  	b.eq	0x2244 <.text+0x1244>
    222c: 00 00 00 d0  	adrp	x0, 0x4000 <.text+0x1234>
    2230: 02 20 20 91  	add	x2, x0, #2056
    2234: 01 09 80 d2  	mov	x1, #72
    2238: 00 00 00 d0  	adrp	x0, 0x4000 <.text+0x1240>
    223c: 00 00 1f 91  	add	x0, x0, #1984
    2240: a4 fd ff 97  	bl	0x18d0 <.text+0x8d0>
    2244: e0 2b 40 f9  	ldr	x0, [sp, #80]
    2248: 01 fc 41 d3  	lsr	x1, x0, #1
    224c: 60 02 40 f9  	ldr	x0, [x19]
    2250: e0 13 00 f9  	str	x0, [sp, #32]
    2254: 60 06 40 f9  	ldr	x0, [x19, #8]
    2258: e0 17 00 f9  	str	x0, [sp, #40]
    225c: 60 0a 40 f9  	ldr	x0, [x19, #16]
    2260: e0 1b 00 f9  	str	x0, [sp, #48]
    2264: 60 0e 40 f9  	ldr	x0, [x19, #24]
    2268: e0 1f 00 f9  	str	x0, [sp, #56]
    226c: e0 83 00 91  	add	x0, sp, #32
    2270: 05 00 80 d2  	mov	x5, #0
    2274: e4 03 00 aa  	mov	x4, x0
    2278: e3 27 40 f9  	ldr	x3, [sp, #72]
    227c: 02 28 80 d2  	mov	x2, #320
    2280: e0 2f 40 f9  	ldr	x0, [sp, #88]
    2284: c2 00 00 94  	bl	0x258c <.text+0x158c>
    2288: f3 0b 40 f9  	ldr	x19, [sp, #16]
    228c: fd 7b c6 a8  	ldp	x29, x30, [sp], #96
    2290: c0 03 5f d6  	ret
    2294: fd 7b ba a9  	stp	x29, x30, [sp, #-96]!
    2298: fd 03 00 91  	mov	x29, sp
    229c: f3 0b 00 f9  	str	x19, [sp, #16]
    22a0: e0 2f 00 f9  	str	x0, [sp, #88]
    22a4: e1 2b 00 f9  	str	x1, [sp, #80]
    22a8: e2 27 00 f9  	str	x2, [sp, #72]
    22ac: f3 03 03 aa  	mov	x19, x3
    22b0: c9 fd ff 97  	bl	0x19d4 <.text+0x9d4>
    22b4: 00 1c 00 12  	and	w0, w0, #0xff
    22b8: 1f 00 00 71  	cmp	w0, #0
    22bc: 60 01 00 54  	b.eq	0x22e8 <.text+0x12e8>
    22c0: e0 2f 40 f9  	ldr	x0, [sp, #88]
    22c4: 00 00 40 92  	and	x0, x0, #0x1
    22c8: 1f 00 00 f1  	cmp	x0, #0
    22cc: e0 00 00 54  	b.eq	0x22e8 <.text+0x12e8>
    22d0: 00 00 00 d0  	adrp	x0, 0x4000 <.text+0x12d8>
    22d4: 02 60 1e 91  	add	x2, x0, #1944
    22d8: 41 1d 80 d2  	mov	x1, #234
    22dc: 00 00 00 d0  	adrp	x0, 0x4000 <.text+0x12e4>
    22e0: 00 00 1f 91  	add	x0, x0, #1984
    22e4: 7b fd ff 97  	bl	0x18d0 <.text+0x8d0>
    22e8: e0 2b 40 f9  	ldr	x0, [sp, #80]
    22ec: 01 fc 41 d3  	lsr	x1, x0, #1
    22f0: 60 02 40 f9  	ldr	x0, [x19]
    22f4: e0 13 00 f9  	str	x0, [sp, #32]
    22f8: 60 06 40 f9  	ldr	x0, [x19, #8]
    22fc: e0 17 00 f9  	str	x0, [sp, #40]
    2300: 60 0a 40 f9  	ldr	x0, [x19, #16]
    2304: e0 1b 00 f9  	str	x0, [sp, #48]
    2308: 60 0e 40 f9  	ldr	x0, [x19, #24]
    230c: e0 1f 00 f9  	str	x0, [sp, #56]
    2310: e0 83 00 91  	add	x0, sp, #32
    2314: 05 00 80 d2  	mov	x5, #0
    2318: e4 03 00 aa  	mov	x4, x0
    231c: e3 27 40 f9  	ldr	x3, [sp, #72]
    2320: 02 08 80 d2  	mov	x2, #64
    2324: e0 2f 40 f9  	ldr	x0, [sp, #88]
    2328: 99 00 00 94  	bl	0x258c <.text+0x158c>
    232c: f3 0b 40 f9  	ldr	x19, [sp, #16]
    2330: fd 7b c6 a8  	ldp	x29, x30, [sp], #96
    2334: c0 03 5f d6  	ret
    2338: fd 7b bb a9  	stp	x29, x30, [sp, #-80]!
    233c: fd 03 00 91  	mov	x29, sp
    2340: e0 27 00 f9  	str	x0, [sp, #72]
    2344: e1 23 00 f9  	str	x1, [sp, #64]
    2348: e2 1f 00 f9  	str	x2, [sp, #56]
    234c: e3 1b 00 f9  	str	x3, [sp, #48]
    2350: a1 fd ff 97  	bl	0x19d4 <.text+0x9d4>
    2354: 00 1c 00 12  	and	w0, w0, #0xff
    2358: 1f 00 00 71  	cmp	w0, #0
    235c: 60 01 00 54  	b.eq	0x2388 <.text+0x1388>
    2360: e0 27 40 f9  	ldr	x0, [sp, #72]
    2364: 00 00 40 92  	and	x0, x0, #0x1
    2368: 1f 00 00 f1  	cmp	x0, #0
    236c: e0 00 00 54  	b.eq	0x2388 <.text+0x1388>
    2370: 00 00 00 d0  	adrp	x0, 0x4000 <.text+0x1378>
    2374: 02 60 1e 91  	add	x2, x0, #1944
    2378: 81 23 80 d2  	mov	x1, #284
    237c: 00 00 00 d0  	adrp	x0, 0x4000 <.text+0x1384>
    2380: 00 00 1f 91  	add	x0, x0, #1984
    2384: 53 fd ff 97  	bl	0x18d0 <.text+0x8d0>
    2388: e0 23 40 f9  	ldr	x0, [sp, #64]
    238c: 06 fc 41 d3  	lsr	x6, x0, #1
    2390: 20 00 00 90  	adrp	x0, 0x6000 <.text+0x13a0>
    2394: 00 00 01 91  	add	x0, x0, #64
    2398: 01 00 40 f9  	ldr	x1, [x0]
    239c: e1 0b 00 f9  	str	x1, [sp, #16]
    23a0: 01 04 40 f9  	ldr	x1, [x0, #8]
    23a4: e1 0f 00 f9  	str	x1, [sp, #24]
    23a8: 01 08 40 f9  	ldr	x1, [x0, #16]
    23ac: e1 13 00 f9  	str	x1, [sp, #32]
    23b0: 00 0c 40 f9  	ldr	x0, [x0, #24]
    23b4: e0 17 00 f9  	str	x0, [sp, #40]
    23b8: e0 43 00 91  	add	x0, sp, #16
    23bc: e5 1b 40 f9  	ldr	x5, [sp, #48]
    23c0: e4 03 00 aa  	mov	x4, x0
    23c4: e3 1f 40 f9  	ldr	x3, [sp, #56]
    23c8: 02 08 80 d2  	mov	x2, #64
    23cc: e1 03 06 aa  	mov	x1, x6
    23d0: e0 27 40 f9  	ldr	x0, [sp, #72]
    23d4: 6e 00 00 94  	bl	0x258c <.text+0x158c>
    23d8: fd 7b c5 a8  	ldp	x29, x30, [sp], #80
    23dc: c0 03 5f d6  	ret
    23e0: fd 7b b5 a9  	stp	x29, x30, [sp, #-176]!
    23e4: fd 03 00 91  	mov	x29, sp
    23e8: e0 27 00 f9  	str	x0, [sp, #72]
    23ec: e1 23 00 f9  	str	x1, [sp, #64]
    23f0: e2 1f 00 f9  	str	x2, [sp, #56]
    23f4: e3 47 00 f9  	str	x3, [sp, #136]
    23f8: e4 4b 00 f9  	str	x4, [sp, #144]
    23fc: e5 4f 00 f9  	str	x5, [sp, #152]
    2400: e6 53 00 f9  	str	x6, [sp, #160]
    2404: e7 57 00 f9  	str	x7, [sp, #168]
    2408: e0 c3 02 91  	add	x0, sp, #176
    240c: e0 2f 00 f9  	str	x0, [sp, #88]
    2410: e0 c3 02 91  	add	x0, sp, #176
    2414: e0 33 00 f9  	str	x0, [sp, #96]
    2418: e0 03 02 91  	add	x0, sp, #128
    241c: e0 37 00 f9  	str	x0, [sp, #104]
    2420: e0 04 80 12  	mov	w0, #-40
    2424: e0 73 00 b9  	str	w0, [sp, #112]
    2428: ff 77 00 b9  	str	wzr, [sp, #116]
    242c: e0 2f 40 f9  	ldr	x0, [sp, #88]
    2430: e0 0b 00 f9  	str	x0, [sp, #16]
    2434: e0 33 40 f9  	ldr	x0, [sp, #96]
    2438: e0 0f 00 f9  	str	x0, [sp, #24]
    243c: e0 37 40 f9  	ldr	x0, [sp, #104]
    2440: e0 13 00 f9  	str	x0, [sp, #32]
    2444: e0 3b 40 f9  	ldr	x0, [sp, #112]
    2448: e0 17 00 f9  	str	x0, [sp, #40]
    244c: e0 43 00 91  	add	x0, sp, #16
    2450: e3 03 00 aa  	mov	x3, x0
    2454: e2 1f 40 f9  	ldr	x2, [sp, #56]
    2458: e1 23 40 f9  	ldr	x1, [sp, #64]
    245c: e0 27 40 f9  	ldr	x0, [sp, #72]
    2460: 8d ff ff 97  	bl	0x2294 <.text+0x1294>
    2464: e0 3f 00 f9  	str	x0, [sp, #120]
    2468: e0 3f 40 f9  	ldr	x0, [sp, #120]
    246c: fd 7b cb a8  	ldp	x29, x30, [sp], #176
    2470: c0 03 5f d6  	ret
    2474: ff 03 01 d1  	sub	sp, sp, #64
    2478: e0 17 00 f9  	str	x0, [sp, #40]
    247c: e1 13 00 f9  	str	x1, [sp, #32]
    2480: e2 0f 00 f9  	str	x2, [sp, #24]
    2484: e3 0b 00 f9  	str	x3, [sp, #16]
    2488: e4 07 00 f9  	str	x4, [sp, #8]
    248c: ff 1f 00 f9  	str	xzr, [sp, #56]
    2490: 15 00 00 14  	b	0x24e4 <.text+0x14e4>
    2494: e0 0b 40 f9  	ldr	x0, [sp, #16]
    2498: 01 1c 00 12  	and	w1, w0, #0xff
    249c: e0 17 40 f9  	ldr	x0, [sp, #40]
    24a0: 01 00 00 39  	strb	w1, [x0]
    24a4: e0 07 40 f9  	ldr	x0, [sp, #8]
    24a8: 1f 04 00 f1  	cmp	x0, #1
    24ac: e0 00 00 54  	b.eq	0x24c8 <.text+0x14c8>
    24b0: e0 0b 40 f9  	ldr	x0, [sp, #16]
    24b4: 01 fc 48 d3  	lsr	x1, x0, #8
    24b8: e0 17 40 f9  	ldr	x0, [sp, #40]
    24bc: 00 04 00 91  	add	x0, x0, #1
    24c0: 21 1c 00 12  	and	w1, w1, #0xff
    24c4: 01 00 00 39  	strb	w1, [x0]
    24c8: e0 07 40 f9  	ldr	x0, [sp, #8]
    24cc: e1 17 40 f9  	ldr	x1, [sp, #40]
    24d0: 20 00 00 8b  	add	x0, x1, x0
    24d4: e0 17 00 f9  	str	x0, [sp, #40]
    24d8: e0 1f 40 f9  	ldr	x0, [sp, #56]
    24dc: 00 04 00 91  	add	x0, x0, #1
    24e0: e0 1f 00 f9  	str	x0, [sp, #56]
    24e4: e1 1f 40 f9  	ldr	x1, [sp, #56]
    24e8: e0 0f 40 f9  	ldr	x0, [sp, #24]
    24ec: 3f 00 00 eb  	cmp	x1, x0
    24f0: aa 00 00 54  	b.ge	0x2504 <.text+0x1504>
    24f4: e1 17 40 f9  	ldr	x1, [sp, #40]
    24f8: e0 13 40 f9  	ldr	x0, [sp, #32]
    24fc: 3f 00 00 eb  	cmp	x1, x0
    2500: a3 fc ff 54  	b.lo	0x2494 <.text+0x1494>
    2504: e0 17 40 f9  	ldr	x0, [sp, #40]
    2508: ff 03 01 91  	add	sp, sp, #64
    250c: c0 03 5f d6  	ret
    2510: fd 7b bc a9  	stp	x29, x30, [sp, #-64]!
    2514: fd 03 00 91  	mov	x29, sp
    2518: e0 17 00 f9  	str	x0, [sp, #40]
    251c: e1 13 00 f9  	str	x1, [sp, #32]
    2520: e2 0f 00 f9  	str	x2, [sp, #24]
    2524: e0 17 40 f9  	ldr	x0, [sp, #40]
    2528: 1f 00 00 39  	strb	wzr, [x0]
    252c: e0 13 40 f9  	ldr	x0, [sp, #32]
    2530: e1 0f 40 f9  	ldr	x1, [sp, #24]
    2534: e3 03 01 2a  	mov	w3, w1
    2538: e1 f3 00 91  	add	x1, sp, #60
    253c: e2 03 01 aa  	mov	x2, x1
    2540: e1 03 03 2a  	mov	w1, w3
    2544: 47 07 00 94  	bl	0x4260 <.text+0x3260>
    2548: e0 13 00 f9  	str	x0, [sp, #32]
    254c: e2 3f 40 b9  	ldr	w2, [sp, #60]
    2550: e0 17 40 f9  	ldr	x0, [sp, #40]
    2554: 00 04 00 91  	add	x0, x0, #1
    2558: e0 17 00 f9  	str	x0, [sp, #40]
    255c: 00 00 00 f0  	adrp	x0, 0x5000 <.text+0x1568>
    2560: 01 80 07 91  	add	x1, x0, #480
    2564: e0 03 02 2a  	mov	w0, w2
    2568: 21 68 60 38  	ldrb	w1, [x1, x0]
    256c: e0 17 40 f9  	ldr	x0, [sp, #40]
    2570: 01 00 00 39  	strb	w1, [x0]
    2574: e0 13 40 f9  	ldr	x0, [sp, #32]
    2578: 1f 00 00 f1  	cmp	x0, #0
    257c: 81 fd ff 54  	b.ne	0x252c <.text+0x152c>
    2580: e0 17 40 f9  	ldr	x0, [sp, #40]
    2584: fd 7b c4 a8  	ldp	x29, x30, [sp], #64
    2588: c0 03 5f d6  	ret
    258c: ff 03 06 d1  	sub	sp, sp, #384
    2590: fd 7b 04 a9  	stp	x29, x30, [sp, #64]
    2594: fd 03 01 91  	add	x29, sp, #64
    2598: f3 2b 00 f9  	str	x19, [sp, #80]
    259c: e0 47 00 f9  	str	x0, [sp, #136]
    25a0: e1 43 00 f9  	str	x1, [sp, #128]
    25a4: e2 3f 00 f9  	str	x2, [sp, #120]
    25a8: e3 3b 00 f9  	str	x3, [sp, #112]
    25ac: f3 03 04 aa  	mov	x19, x4
    25b0: e5 37 00 f9  	str	x5, [sp, #104]
    25b4: e0 43 40 f9  	ldr	x0, [sp, #128]
    25b8: 1f 00 00 f1  	cmp	x0, #0
    25bc: e0 02 00 54  	b.eq	0x2618 <.text+0x1618>
    25c0: e0 3f 40 f9  	ldr	x0, [sp, #120]
    25c4: 00 00 73 92  	and	x0, x0, #0x2000
    25c8: 1f 00 00 f1  	cmp	x0, #0
    25cc: 61 02 00 54  	b.ne	0x2618 <.text+0x1618>
    25d0: 01 fd ff 97  	bl	0x19d4 <.text+0x9d4>
    25d4: 00 1c 00 12  	and	w0, w0, #0xff
    25d8: 1f 00 00 71  	cmp	w0, #0
    25dc: 40 01 00 54  	b.eq	0x2604 <.text+0x1604>
    25e0: e0 47 40 f9  	ldr	x0, [sp, #136]
    25e4: 1f 00 00 f1  	cmp	x0, #0
    25e8: e1 00 00 54  	b.ne	0x2604 <.text+0x1604>
    25ec: 00 00 00 d0  	adrp	x0, 0x4000 <.text+0x15f4>
    25f0: 02 c0 1b 91  	add	x2, x0, #1776
    25f4: e1 49 80 d2  	mov	x1, #591
    25f8: 00 00 00 d0  	adrp	x0, 0x4000 <.text+0x1600>
    25fc: 00 c0 20 91  	add	x0, x0, #2096
    2600: b4 fc ff 97  	bl	0x18d0 <.text+0x8d0>
    2604: e0 47 40 f9  	ldr	x0, [sp, #136]
    2608: 1f 00 00 f1  	cmp	x0, #0
    260c: 61 00 00 54  	b.ne	0x2618 <.text+0x1618>
    2610: 00 00 80 d2  	mov	x0, #0
    2614: a3 06 00 14  	b	0x40a0 <.text+0x30a0>
    2618: e0 43 40 f9  	ldr	x0, [sp, #128]
    261c: 1f 00 00 f1  	cmp	x0, #0
    2620: a1 00 00 54  	b.ne	0x2634 <.text+0x1634>
    2624: e0 3f 40 f9  	ldr	x0, [sp, #120]
    2628: 00 00 73 92  	and	x0, x0, #0x2000
    262c: 1f 00 00 f1  	cmp	x0, #0
    2630: 60 02 00 54  	b.eq	0x267c <.text+0x167c>
    2634: e8 fc ff 97  	bl	0x19d4 <.text+0x9d4>
    2638: 00 1c 00 12  	and	w0, w0, #0xff
    263c: 1f 00 00 71  	cmp	w0, #0
    2640: 40 01 00 54  	b.eq	0x2668 <.text+0x1668>
    2644: e0 3b 40 f9  	ldr	x0, [sp, #112]
    2648: 1f 00 00 f1  	cmp	x0, #0
    264c: e1 00 00 54  	b.ne	0x2668 <.text+0x1668>
    2650: 00 00 00 d0  	adrp	x0, 0x4000 <.text+0x1658>
    2654: 02 e0 28 91  	add	x2, x0, #2616
    2658: e1 4a 80 d2  	mov	x1, #599
    265c: 00 00 00 d0  	adrp	x0, 0x4000 <.text+0x1664>
    2660: 00 c0 20 91  	add	x0, x0, #2096
    2664: 9b fc ff 97  	bl	0x18d0 <.text+0x8d0>
    2668: e0 3b 40 f9  	ldr	x0, [sp, #112]
    266c: 1f 00 00 f1  	cmp	x0, #0
    2670: 61 00 00 54  	b.ne	0x267c <.text+0x167c>
    2674: 00 00 80 d2  	mov	x0, #0
    2678: 8a 06 00 14  	b	0x40a0 <.text+0x30a0>
    267c: e0 3f 40 f9  	ldr	x0, [sp, #120]
    2680: 00 00 7a 92  	and	x0, x0, #0x40
    2684: 1f 00 00 f1  	cmp	x0, #0
    2688: 60 04 00 54  	b.eq	0x2714 <.text+0x1714>
    268c: 00 00 00 d0  	adrp	x0, 0x4000 <.text+0x1694>
    2690: 00 60 34 91  	add	x0, x0, #3352
    2694: 00 00 40 b9  	ldr	w0, [x0]
    2698: 1f 00 00 71  	cmp	w0, #0
    269c: 60 03 00 54  	b.eq	0x2708 <.text+0x1708>
    26a0: cd fc ff 97  	bl	0x19d4 <.text+0x9d4>
    26a4: 00 1c 00 12  	and	w0, w0, #0xff
    26a8: 1f 00 00 71  	cmp	w0, #0
    26ac: c0 01 00 54  	b.eq	0x26e4 <.text+0x16e4>
    26b0: 00 00 00 d0  	adrp	x0, 0x4000 <.text+0x16b8>
    26b4: 00 60 34 91  	add	x0, x0, #3352
    26b8: 00 00 40 b9  	ldr	w0, [x0]
    26bc: e0 03 00 2a  	mov	w0, w0
    26c0: e1 43 40 f9  	ldr	x1, [sp, #128]
    26c4: 3f 00 00 eb  	cmp	x1, x0
    26c8: e9 00 00 54  	b.ls	0x26e4 <.text+0x16e4>
    26cc: 00 00 00 d0  	adrp	x0, 0x4000 <.text+0x16d4>
    26d0: 02 60 29 91  	add	x2, x0, #2648
    26d4: 01 4c 80 d2  	mov	x1, #608
    26d8: 00 00 00 d0  	adrp	x0, 0x4000 <.text+0x16e0>
    26dc: 00 c0 20 91  	add	x0, x0, #2096
    26e0: 7c fc ff 97  	bl	0x18d0 <.text+0x8d0>
    26e4: 00 00 00 d0  	adrp	x0, 0x4000 <.text+0x16ec>
    26e8: 00 60 34 91  	add	x0, x0, #3352
    26ec: 00 00 40 b9  	ldr	w0, [x0]
    26f0: e0 03 00 2a  	mov	w0, w0
    26f4: e1 43 40 f9  	ldr	x1, [sp, #128]
    26f8: 3f 00 00 eb  	cmp	x1, x0
    26fc: 69 00 00 54  	b.ls	0x2708 <.text+0x1708>
    2700: 00 00 80 d2  	mov	x0, #0
    2704: 67 06 00 14  	b	0x40a0 <.text+0x30a0>
    2708: 40 00 80 52  	mov	w0, #2
    270c: e0 6f 01 b9  	str	w0, [sp, #364]
    2710: 22 00 00 14  	b	0x2798 <.text+0x1798>
    2714: 00 00 00 d0  	adrp	x0, 0x4000 <.text+0x171c>
    2718: 00 50 34 91  	add	x0, x0, #3348
    271c: 00 00 40 b9  	ldr	w0, [x0]
    2720: 1f 00 00 71  	cmp	w0, #0
    2724: 60 03 00 54  	b.eq	0x2790 <.text+0x1790>
    2728: ab fc ff 97  	bl	0x19d4 <.text+0x9d4>
    272c: 00 1c 00 12  	and	w0, w0, #0xff
    2730: 1f 00 00 71  	cmp	w0, #0
    2734: c0 01 00 54  	b.eq	0x276c <.text+0x176c>
    2738: 00 00 00 d0  	adrp	x0, 0x4000 <.text+0x1740>
    273c: 00 50 34 91  	add	x0, x0, #3348
    2740: 00 00 40 b9  	ldr	w0, [x0]
    2744: e0 03 00 2a  	mov	w0, w0
    2748: e1 43 40 f9  	ldr	x1, [sp, #128]
    274c: 3f 00 00 eb  	cmp	x1, x0
    2750: e9 00 00 54  	b.ls	0x276c <.text+0x176c>
    2754: 00 00 00 d0  	adrp	x0, 0x4000 <.text+0x175c>
    2758: 02 c0 23 91  	add	x2, x0, #2288
    275c: c1 4c 80 d2  	mov	x1, #614
    2760: 00 00 00 d0  	adrp	x0, 0x4000 <.text+0x1768>
    2764: 00 c0 20 91  	add	x0, x0, #2096
    2768: 5a fc ff 97  	bl	0x18d0 <.text+0x8d0>
    276c: 00 00 00 d0  	adrp	x0, 0x4000 <.text+0x1774>
    2770: 00 50 34 91  	add	x0, x0, #3348
    2774: 00 00 40 b9  	ldr	w0, [x0]
    2778: e0 03 00 2a  	mov	w0, w0
    277c: e1 43 40 f9  	ldr	x1, [sp, #128]
    2780: 3f 00 00 eb  	cmp	x1, x0
    2784: 69 00 00 54  	b.ls	0x2790 <.text+0x1790>
    2788: 00 00 80 d2  	mov	x0, #0
    278c: 45 06 00 14  	b	0x40a0 <.text+0x30a0>
    2790: 20 00 80 52  	mov	w0, #1
    2794: e0 6f 01 b9  	str	w0, [sp, #364]
    2798: e0 3f 40 f9  	ldr	x0, [sp, #120]
    279c: 00 00 78 92  	and	x0, x0, #0x100
    27a0: 1f 00 00 f1  	cmp	x0, #0
    27a4: a0 06 00 54  	b.eq	0x2878 <.text+0x1878>
    27a8: 00 00 00 d0  	adrp	x0, 0x4000 <.text+0x17b0>
    27ac: 00 60 34 91  	add	x0, x0, #3352
    27b0: 00 00 40 b9  	ldr	w0, [x0]
    27b4: 1f 00 00 71  	cmp	w0, #0
    27b8: 60 05 00 54  	b.eq	0x2864 <.text+0x1864>
    27bc: 86 fc ff 97  	bl	0x19d4 <.text+0x9d4>
    27c0: 00 1c 00 12  	and	w0, w0, #0xff
    27c4: 1f 00 00 71  	cmp	w0, #0
    27c8: c0 02 00 54  	b.eq	0x2820 <.text+0x1820>
    27cc: 00 00 00 d0  	adrp	x0, 0x4000 <.text+0x17d4>
    27d0: 00 60 34 91  	add	x0, x0, #3352
    27d4: 00 00 40 b9  	ldr	w0, [x0]
    27d8: 00 04 00 11  	add	w0, w0, #1
    27dc: e0 03 00 2a  	mov	w0, w0
    27e0: e1 03 00 aa  	mov	x1, x0
    27e4: e0 3b 40 f9  	ldr	x0, [sp, #112]
    27e8: cc fd ff 97  	bl	0x1f18 <.text+0xf18>
    27ec: e1 03 00 aa  	mov	x1, x0
    27f0: 00 00 00 d0  	adrp	x0, 0x4000 <.text+0x17f8>
    27f4: 00 60 34 91  	add	x0, x0, #3352
    27f8: 00 00 40 b9  	ldr	w0, [x0]
    27fc: e0 03 00 2a  	mov	w0, w0
    2800: 3f 00 00 eb  	cmp	x1, x0
    2804: e9 00 00 54  	b.ls	0x2820 <.text+0x1820>
    2808: 00 00 00 d0  	adrp	x0, 0x4000 <.text+0x1810>
    280c: 02 80 2a 91  	add	x2, x0, #2720
    2810: 41 4e 80 d2  	mov	x1, #626
    2814: 00 00 00 d0  	adrp	x0, 0x4000 <.text+0x181c>
    2818: 00 c0 20 91  	add	x0, x0, #2096
    281c: 2d fc ff 97  	bl	0x18d0 <.text+0x8d0>
    2820: 00 00 00 d0  	adrp	x0, 0x4000 <.text+0x1828>
    2824: 00 60 34 91  	add	x0, x0, #3352
    2828: 00 00 40 b9  	ldr	w0, [x0]
    282c: 00 04 00 11  	add	w0, w0, #1
    2830: e0 03 00 2a  	mov	w0, w0
    2834: e1 03 00 aa  	mov	x1, x0
    2838: e0 3b 40 f9  	ldr	x0, [sp, #112]
    283c: b7 fd ff 97  	bl	0x1f18 <.text+0xf18>
    2840: e1 03 00 aa  	mov	x1, x0
    2844: 00 00 00 d0  	adrp	x0, 0x4000 <.text+0x184c>
    2848: 00 60 34 91  	add	x0, x0, #3352
    284c: 00 00 40 b9  	ldr	w0, [x0]
    2850: e0 03 00 2a  	mov	w0, w0
    2854: 3f 00 00 eb  	cmp	x1, x0
    2858: 69 00 00 54  	b.ls	0x2864 <.text+0x1864>
    285c: 00 00 80 d2  	mov	x0, #0
    2860: 10 06 00 14  	b	0x40a0 <.text+0x30a0>
    2864: 40 00 80 d2  	mov	x0, #2
    2868: e0 b3 00 f9  	str	x0, [sp, #352]
    286c: e0 ff 9f d2  	mov	x0, #65535
    2870: e0 af 00 f9  	str	x0, [sp, #344]
    2874: 34 00 00 14  	b	0x2944 <.text+0x1944>
    2878: 00 00 00 d0  	adrp	x0, 0x4000 <.text+0x1880>
    287c: 00 50 34 91  	add	x0, x0, #3348
    2880: 00 00 40 b9  	ldr	w0, [x0]
    2884: 1f 00 00 71  	cmp	w0, #0
    2888: 60 05 00 54  	b.eq	0x2934 <.text+0x1934>
    288c: 52 fc ff 97  	bl	0x19d4 <.text+0x9d4>
    2890: 00 1c 00 12  	and	w0, w0, #0xff
    2894: 1f 00 00 71  	cmp	w0, #0
    2898: c0 02 00 54  	b.eq	0x28f0 <.text+0x18f0>
    289c: 00 00 00 d0  	adrp	x0, 0x4000 <.text+0x18a4>
    28a0: 00 50 34 91  	add	x0, x0, #3348
    28a4: 00 00 40 b9  	ldr	w0, [x0]
    28a8: 00 04 00 11  	add	w0, w0, #1
    28ac: e0 03 00 2a  	mov	w0, w0
    28b0: e1 03 00 aa  	mov	x1, x0
    28b4: e0 3b 40 f9  	ldr	x0, [sp, #112]
    28b8: c8 fd ff 97  	bl	0x1fd8 <.text+0xfd8>
    28bc: e1 03 00 aa  	mov	x1, x0
    28c0: 00 00 00 d0  	adrp	x0, 0x4000 <.text+0x18c8>
    28c4: 00 50 34 91  	add	x0, x0, #3348
    28c8: 00 00 40 b9  	ldr	w0, [x0]
    28cc: e0 03 00 2a  	mov	w0, w0
    28d0: 3f 00 00 eb  	cmp	x1, x0
    28d4: e9 00 00 54  	b.ls	0x28f0 <.text+0x18f0>
    28d8: 00 00 00 d0  	adrp	x0, 0x4000 <.text+0x18e0>
    28dc: 02 c0 2c 91  	add	x2, x0, #2864
    28e0: 21 4f 80 d2  	mov	x1, #633
    28e4: 00 00 00 d0  	adrp	x0, 0x4000 <.text+0x18ec>
    28e8: 00 c0 20 91  	add	x0, x0, #2096
    28ec: f9 fb ff 97  	bl	0x18d0 <.text+0x8d0>
    28f0: 00 00 00 d0  	adrp	x0, 0x4000 <.text+0x18f8>
    28f4: 00 50 34 91  	add	x0, x0, #3348
    28f8: 00 00 40 b9  	ldr	w0, [x0]
    28fc: 00 04 00 11  	add	w0, w0, #1
    2900: e0 03 00 2a  	mov	w0, w0
    2904: e1 03 00 aa  	mov	x1, x0
    2908: e0 3b 40 f9  	ldr	x0, [sp, #112]
    290c: b3 fd ff 97  	bl	0x1fd8 <.text+0xfd8>
    2910: e1 03 00 aa  	mov	x1, x0
    2914: 00 00 00 d0  	adrp	x0, 0x4000 <.text+0x191c>
    2918: 00 50 34 91  	add	x0, x0, #3348
    291c: 00 00 40 b9  	ldr	w0, [x0]
    2920: e0 03 00 2a  	mov	w0, w0
    2924: 3f 00 00 eb  	cmp	x1, x0
    2928: 69 00 00 54  	b.ls	0x2934 <.text+0x1934>
    292c: 00 00 80 d2  	mov	x0, #0
    2930: dc 05 00 14  	b	0x40a0 <.text+0x30a0>
    2934: 20 00 80 d2  	mov	x0, #1
    2938: e0 b3 00 f9  	str	x0, [sp, #352]
    293c: e0 1f 80 d2  	mov	x0, #255
    2940: e0 af 00 f9  	str	x0, [sp, #344]
    2944: e0 3f 40 f9  	ldr	x0, [sp, #120]
    2948: 00 00 73 92  	and	x0, x0, #0x2000
    294c: 1f 00 00 f1  	cmp	x0, #0
    2950: c0 00 00 54  	b.eq	0x2968 <.text+0x1968>
    2954: e0 43 40 f9  	ldr	x0, [sp, #128]
    2958: 1f 00 00 f1  	cmp	x0, #0
    295c: 01 01 00 54  	b.ne	0x297c <.text+0x197c>
    2960: ff 47 00 f9  	str	xzr, [sp, #136]
    2964: 06 00 00 14  	b	0x297c <.text+0x197c>
    2968: e0 43 40 f9  	ldr	x0, [sp, #128]
    296c: 1f 00 00 f1  	cmp	x0, #0
    2970: 61 00 00 54  	b.ne	0x297c <.text+0x197c>
    2974: 00 00 80 d2  	mov	x0, #0
    2978: ca 05 00 14  	b	0x40a0 <.text+0x30a0>
    297c: ff 6f 00 f9  	str	xzr, [sp, #216]
    2980: ff bb 00 f9  	str	xzr, [sp, #368]
    2984: ff bf 00 f9  	str	xzr, [sp, #376]
    2988: e0 47 40 f9  	ldr	x0, [sp, #136]
    298c: 1f 00 00 f1  	cmp	x0, #0
    2990: 80 01 00 54  	b.eq	0x29c0 <.text+0x19c0>
    2994: e0 43 40 f9  	ldr	x0, [sp, #128]
    2998: 00 04 00 d1  	sub	x0, x0, #1
    299c: e0 43 00 f9  	str	x0, [sp, #128]
    29a0: e0 47 40 f9  	ldr	x0, [sp, #136]
    29a4: e0 bf 00 f9  	str	x0, [sp, #376]
    29a8: e1 6f 41 b9  	ldr	w1, [sp, #364]
    29ac: e0 43 40 f9  	ldr	x0, [sp, #128]
    29b0: 20 7c 00 9b  	mul	x0, x1, x0
    29b4: e1 47 40 f9  	ldr	x1, [sp, #136]
    29b8: 20 00 00 8b  	add	x0, x1, x0
    29bc: e0 bb 00 f9  	str	x0, [sp, #368]
    29c0: e0 3b 40 f9  	ldr	x0, [sp, #112]
    29c4: 00 00 40 39  	ldrb	w0, [x0]
    29c8: e1 03 00 2a  	mov	w1, w0
    29cc: e0 b3 40 f9  	ldr	x0, [sp, #352]
    29d0: 1f 04 00 f1  	cmp	x0, #1
    29d4: c0 00 00 54  	b.eq	0x29ec <.text+0x19ec>
    29d8: e0 3b 40 f9  	ldr	x0, [sp, #112]
    29dc: 00 04 00 91  	add	x0, x0, #1
    29e0: 00 00 40 39  	ldrb	w0, [x0]
    29e4: 00 5c 18 53  	lsl	w0, w0, #8
    29e8: 02 00 00 14  	b	0x29f0 <.text+0x19f0>
    29ec: 00 00 80 52  	mov	w0, #0
    29f0: 00 00 01 2a  	orr	w0, w0, w1
    29f4: 01 7c 40 93  	sxtw	x1, w0
    29f8: e0 af 40 f9  	ldr	x0, [sp, #344]
    29fc: 20 00 00 8a  	and	x0, x1, x0
    2a00: e0 4f 00 f9  	str	x0, [sp, #152]
    2a04: 7e 05 00 14  	b	0x3ffc <.text+0x2ffc>
    2a08: e0 47 40 f9  	ldr	x0, [sp, #136]
    2a0c: 1f 00 00 f1  	cmp	x0, #0
    2a10: a0 00 00 54  	b.eq	0x2a24 <.text+0x1a24>
    2a14: e1 47 40 f9  	ldr	x1, [sp, #136]
    2a18: e0 bb 40 f9  	ldr	x0, [sp, #368]
    2a1c: 3f 00 00 eb  	cmp	x1, x0
    2a20: 62 af 00 54  	b.hs	0x400c <.text+0x300c>
    2a24: e1 3f 40 f9  	ldr	x1, [sp, #120]
    2a28: 00 28 84 d2  	mov	x0, #8512
    2a2c: 20 00 00 8a  	and	x0, x1, x0
    2a30: e0 3f 00 f9  	str	x0, [sp, #120]
    2a34: ff ab 00 f9  	str	xzr, [sp, #336]
    2a38: 20 00 80 d2  	mov	x0, #1
    2a3c: e0 a7 00 f9  	str	x0, [sp, #328]
    2a40: ff ff 03 39  	strb	wzr, [sp, #255]
    2a44: ff f7 03 39  	strb	wzr, [sp, #253]
    2a48: ff fb 03 39  	strb	wzr, [sp, #254]
    2a4c: ff 93 00 f9  	str	xzr, [sp, #288]
    2a50: ff 7b 00 f9  	str	xzr, [sp, #240]
    2a54: e0 4f 40 f9  	ldr	x0, [sp, #152]
    2a58: 1f 94 00 f1  	cmp	x0, #37
    2a5c: 00 01 00 54  	b.eq	0x2a7c <.text+0x1a7c>
    2a60: 1f 94 00 f1  	cmp	x0, #37
    2a64: 68 7d 00 54  	b.hi	0x3a10 <.text+0x2a10>
    2a68: 1f 28 00 f1  	cmp	x0, #10
    2a6c: 00 79 00 54  	b.eq	0x398c <.text+0x298c>
    2a70: 1f 34 00 f1  	cmp	x0, #13
    2a74: 20 74 00 54  	b.eq	0x38f8 <.text+0x28f8>
    2a78: e6 03 00 14  	b	0x3a10 <.text+0x2a10>
    2a7c: ff 3f 04 39  	strb	wzr, [sp, #271]
    2a80: ea 00 00 14  	b	0x2e28 <.text+0x1e28>
    2a84: e1 3b 40 f9  	ldr	x1, [sp, #112]
    2a88: e0 b3 40 f9  	ldr	x0, [sp, #352]
    2a8c: 20 00 00 8b  	add	x0, x1, x0
    2a90: e0 3b 00 f9  	str	x0, [sp, #112]
    2a94: e0 3b 40 f9  	ldr	x0, [sp, #112]
    2a98: 00 00 40 39  	ldrb	w0, [x0]
    2a9c: e1 03 00 2a  	mov	w1, w0
    2aa0: e0 b3 40 f9  	ldr	x0, [sp, #352]
    2aa4: 1f 04 00 f1  	cmp	x0, #1
    2aa8: c0 00 00 54  	b.eq	0x2ac0 <.text+0x1ac0>
    2aac: e0 3b 40 f9  	ldr	x0, [sp, #112]
    2ab0: 00 04 00 91  	add	x0, x0, #1
    2ab4: 00 00 40 39  	ldrb	w0, [x0]
    2ab8: 00 5c 18 53  	lsl	w0, w0, #8
    2abc: 02 00 00 14  	b	0x2ac4 <.text+0x1ac4>
    2ac0: 00 00 80 52  	mov	w0, #0
    2ac4: 00 00 01 2a  	orr	w0, w0, w1
    2ac8: 01 7c 40 93  	sxtw	x1, w0
    2acc: e0 af 40 f9  	ldr	x0, [sp, #344]
    2ad0: 20 00 00 8a  	and	x0, x1, x0
    2ad4: e0 4f 00 f9  	str	x0, [sp, #152]
    2ad8: e0 4f 40 f9  	ldr	x0, [sp, #152]
    2adc: 1f b0 01 f1  	cmp	x0, #108
    2ae0: 80 07 00 54  	b.eq	0x2bd0 <.text+0x1bd0>
    2ae4: 1f b0 01 f1  	cmp	x0, #108
    2ae8: a8 19 00 54  	b.hi	0x2e1c <.text+0x1e1c>
    2aec: 1f 30 01 f1  	cmp	x0, #76
    2af0: 00 07 00 54  	b.eq	0x2bd0 <.text+0x1bd0>
    2af4: 1f 30 01 f1  	cmp	x0, #76
    2af8: 28 19 00 54  	b.hi	0x2e1c <.text+0x1e1c>
    2afc: 1f e4 00 f1  	cmp	x0, #57
    2b00: e8 18 00 54  	b.hi	0x2e1c <.text+0x1e1c>
    2b04: 1f c4 00 f1  	cmp	x0, #49
    2b08: c2 10 00 54  	b.hs	0x2d20 <.text+0x1d20>
    2b0c: 1f c0 00 f1  	cmp	x0, #48
    2b10: a0 0f 00 54  	b.eq	0x2d04 <.text+0x1d04>
    2b14: 1f c0 00 f1  	cmp	x0, #48
    2b18: 28 18 00 54  	b.hi	0x2e1c <.text+0x1e1c>
    2b1c: 1f b8 00 f1  	cmp	x0, #46
    2b20: 00 03 00 54  	b.eq	0x2b80 <.text+0x1b80>
    2b24: 1f b8 00 f1  	cmp	x0, #46
    2b28: a8 17 00 54  	b.hi	0x2e1c <.text+0x1e1c>
    2b2c: 1f b4 00 f1  	cmp	x0, #45
    2b30: 00 03 00 54  	b.eq	0x2b90 <.text+0x1b90>
    2b34: 1f b4 00 f1  	cmp	x0, #45
    2b38: 28 17 00 54  	b.hi	0x2e1c <.text+0x1e1c>
    2b3c: 1f b0 00 f1  	cmp	x0, #44
    2b40: 00 04 00 54  	b.eq	0x2bc0 <.text+0x1bc0>
    2b44: 1f b0 00 f1  	cmp	x0, #44
    2b48: a8 16 00 54  	b.hi	0x2e1c <.text+0x1e1c>
    2b4c: 1f ac 00 f1  	cmp	x0, #43
    2b50: 80 02 00 54  	b.eq	0x2ba0 <.text+0x1ba0>
    2b54: 1f ac 00 f1  	cmp	x0, #43
    2b58: 28 16 00 54  	b.hi	0x2e1c <.text+0x1e1c>
    2b5c: 1f a8 00 f1  	cmp	x0, #42
    2b60: 00 04 00 54  	b.eq	0x2be0 <.text+0x1be0>
    2b64: 1f a8 00 f1  	cmp	x0, #42
    2b68: a8 15 00 54  	b.hi	0x2e1c <.text+0x1e1c>
    2b6c: 1f 00 00 f1  	cmp	x0, #0
    2b70: a0 14 00 54  	b.eq	0x2e04 <.text+0x1e04>
    2b74: 1f 80 00 f1  	cmp	x0, #32
    2b78: c0 01 00 54  	b.eq	0x2bb0 <.text+0x1bb0>
    2b7c: a8 00 00 14  	b	0x2e1c <.text+0x1e1c>
    2b80: e0 3f 40 f9  	ldr	x0, [sp, #120]
    2b84: 00 00 75 b2  	orr	x0, x0, #0x800
    2b88: e0 3f 00 f9  	str	x0, [sp, #120]
    2b8c: a7 00 00 14  	b	0x2e28 <.text+0x1e28>
    2b90: e0 3f 40 f9  	ldr	x0, [sp, #120]
    2b94: 00 00 40 b2  	orr	x0, x0, #0x1
    2b98: e0 3f 00 f9  	str	x0, [sp, #120]
    2b9c: a3 00 00 14  	b	0x2e28 <.text+0x1e28>
    2ba0: e0 3f 40 f9  	ldr	x0, [sp, #120]
    2ba4: 00 00 7f b2  	orr	x0, x0, #0x2
    2ba8: e0 3f 00 f9  	str	x0, [sp, #120]
    2bac: 9f 00 00 14  	b	0x2e28 <.text+0x1e28>
    2bb0: e0 3f 40 f9  	ldr	x0, [sp, #120]
    2bb4: 00 00 7e b2  	orr	x0, x0, #0x4
    2bb8: e0 3f 00 f9  	str	x0, [sp, #120]
    2bbc: 9b 00 00 14  	b	0x2e28 <.text+0x1e28>
    2bc0: e0 3f 40 f9  	ldr	x0, [sp, #120]
    2bc4: 00 00 7d b2  	orr	x0, x0, #0x8
    2bc8: e0 3f 00 f9  	str	x0, [sp, #120]
    2bcc: 97 00 00 14  	b	0x2e28 <.text+0x1e28>
    2bd0: e0 3f 40 f9  	ldr	x0, [sp, #120]
    2bd4: 00 00 7c b2  	orr	x0, x0, #0x10
    2bd8: e0 3f 00 f9  	str	x0, [sp, #120]
    2bdc: 93 00 00 14  	b	0x2e28 <.text+0x1e28>
    2be0: e0 3f 40 f9  	ldr	x0, [sp, #120]
    2be4: 00 00 75 92  	and	x0, x0, #0x800
    2be8: 1f 00 00 f1  	cmp	x0, #0
    2bec: a1 04 00 54  	b.ne	0x2c80 <.text+0x1c80>
    2bf0: e0 3f 40 f9  	ldr	x0, [sp, #120]
    2bf4: 00 00 77 b2  	orr	x0, x0, #0x200
    2bf8: e0 3f 00 f9  	str	x0, [sp, #120]
    2bfc: e0 37 40 f9  	ldr	x0, [sp, #104]
    2c00: 1f 00 00 f1  	cmp	x0, #0
    2c04: 01 03 00 54  	b.ne	0x2c64 <.text+0x1c64>
    2c08: 61 1a 40 b9  	ldr	w1, [x19, #24]
    2c0c: 60 02 40 f9  	ldr	x0, [x19]
    2c10: 3f 00 00 71  	cmp	w1, #0
    2c14: ab 00 00 54  	b.lt	0x2c28 <.text+0x1c28>
    2c18: 01 3c 00 91  	add	x1, x0, #15
    2c1c: 21 f0 7d 92  	and	x1, x1, #0xfffffffffffffff8
    2c20: 61 02 00 f9  	str	x1, [x19]
    2c24: 0d 00 00 14  	b	0x2c58 <.text+0x1c58>
    2c28: 22 20 00 11  	add	w2, w1, #8
    2c2c: 62 1a 00 b9  	str	w2, [x19, #24]
    2c30: 62 1a 40 b9  	ldr	w2, [x19, #24]
    2c34: 5f 00 00 71  	cmp	w2, #0
    2c38: ad 00 00 54  	b.le	0x2c4c <.text+0x1c4c>
    2c3c: 01 3c 00 91  	add	x1, x0, #15
    2c40: 21 f0 7d 92  	and	x1, x1, #0xfffffffffffffff8
    2c44: 61 02 00 f9  	str	x1, [x19]
    2c48: 04 00 00 14  	b	0x2c58 <.text+0x1c58>
    2c4c: 62 06 40 f9  	ldr	x2, [x19, #8]
    2c50: 20 7c 40 93  	sxtw	x0, w1
    2c54: 40 00 00 8b  	add	x0, x2, x0
    2c58: 00 00 40 f9  	ldr	x0, [x0]
    2c5c: e0 ab 00 f9  	str	x0, [sp, #336]
    2c60: 72 00 00 14  	b	0x2e28 <.text+0x1e28>
    2c64: e0 37 40 f9  	ldr	x0, [sp, #104]
    2c68: 00 20 00 91  	add	x0, x0, #8
    2c6c: e0 37 00 f9  	str	x0, [sp, #104]
    2c70: e0 37 40 f9  	ldr	x0, [sp, #104]
    2c74: 00 80 5f f8  	ldur	x0, [x0, #-8]
    2c78: e0 ab 00 f9  	str	x0, [sp, #336]
    2c7c: 6b 00 00 14  	b	0x2e28 <.text+0x1e28>
    2c80: e0 37 40 f9  	ldr	x0, [sp, #104]
    2c84: 1f 00 00 f1  	cmp	x0, #0
    2c88: 01 03 00 54  	b.ne	0x2ce8 <.text+0x1ce8>
    2c8c: 61 1a 40 b9  	ldr	w1, [x19, #24]
    2c90: 60 02 40 f9  	ldr	x0, [x19]
    2c94: 3f 00 00 71  	cmp	w1, #0
    2c98: ab 00 00 54  	b.lt	0x2cac <.text+0x1cac>
    2c9c: 01 3c 00 91  	add	x1, x0, #15
    2ca0: 21 f0 7d 92  	and	x1, x1, #0xfffffffffffffff8
    2ca4: 61 02 00 f9  	str	x1, [x19]
    2ca8: 0d 00 00 14  	b	0x2cdc <.text+0x1cdc>
    2cac: 22 20 00 11  	add	w2, w1, #8
    2cb0: 62 1a 00 b9  	str	w2, [x19, #24]
    2cb4: 62 1a 40 b9  	ldr	w2, [x19, #24]
    2cb8: 5f 00 00 71  	cmp	w2, #0
    2cbc: ad 00 00 54  	b.le	0x2cd0 <.text+0x1cd0>
    2cc0: 01 3c 00 91  	add	x1, x0, #15
    2cc4: 21 f0 7d 92  	and	x1, x1, #0xfffffffffffffff8
    2cc8: 61 02 00 f9  	str	x1, [x19]
    2ccc: 04 00 00 14  	b	0x2cdc <.text+0x1cdc>
    2cd0: 62 06 40 f9  	ldr	x2, [x19, #8]
    2cd4: 20 7c 40 93  	sxtw	x0, w1
    2cd8: 40 00 00 8b  	add	x0, x2, x0
    2cdc: 00 00 40 f9  	ldr	x0, [x0]
    2ce0: e0 a7 00 f9  	str	x0, [sp, #328]
    2ce4: 51 00 00 14  	b	0x2e28 <.text+0x1e28>
    2ce8: e0 37 40 f9  	ldr	x0, [sp, #104]
    2cec: 00 20 00 91  	add	x0, x0, #8
    2cf0: e0 37 00 f9  	str	x0, [sp, #104]
    2cf4: e0 37 40 f9  	ldr	x0, [sp, #104]
    2cf8: 00 80 5f f8  	ldur	x0, [x0, #-8]
    2cfc: e0 a7 00 f9  	str	x0, [sp, #328]
    2d00: 4a 00 00 14  	b	0x2e28 <.text+0x1e28>
    2d04: e0 3f 40 f9  	ldr	x0, [sp, #120]
    2d08: 00 00 75 92  	and	x0, x0, #0x800
    2d0c: 1f 00 00 f1  	cmp	x0, #0
    2d10: 81 00 00 54  	b.ne	0x2d20 <.text+0x1d20>
    2d14: e0 3f 40 f9  	ldr	x0, [sp, #120]
    2d18: 00 00 7b b2  	orr	x0, x0, #0x20
    2d1c: e0 3f 00 f9  	str	x0, [sp, #120]
    2d20: ff 93 00 f9  	str	xzr, [sp, #288]
    2d24: 20 00 00 14  	b	0x2da4 <.text+0x1da4>
    2d28: e1 93 40 f9  	ldr	x1, [sp, #288]
    2d2c: e0 03 01 aa  	mov	x0, x1
    2d30: 00 f4 7e d3  	lsl	x0, x0, #2
    2d34: 00 00 01 8b  	add	x0, x0, x1
    2d38: 00 f8 7f d3  	lsl	x0, x0, #1
    2d3c: e1 03 00 aa  	mov	x1, x0
    2d40: e0 4f 40 f9  	ldr	x0, [sp, #152]
    2d44: 20 00 00 8b  	add	x0, x1, x0
    2d48: 00 c0 00 d1  	sub	x0, x0, #48
    2d4c: e0 93 00 f9  	str	x0, [sp, #288]
    2d50: e1 3b 40 f9  	ldr	x1, [sp, #112]
    2d54: e0 b3 40 f9  	ldr	x0, [sp, #352]
    2d58: 20 00 00 8b  	add	x0, x1, x0
    2d5c: e0 3b 00 f9  	str	x0, [sp, #112]
    2d60: e0 3b 40 f9  	ldr	x0, [sp, #112]
    2d64: 00 00 40 39  	ldrb	w0, [x0]
    2d68: e1 03 00 2a  	mov	w1, w0
    2d6c: e0 b3 40 f9  	ldr	x0, [sp, #352]
    2d70: 1f 04 00 f1  	cmp	x0, #1
    2d74: c0 00 00 54  	b.eq	0x2d8c <.text+0x1d8c>
    2d78: e0 3b 40 f9  	ldr	x0, [sp, #112]
    2d7c: 00 04 00 91  	add	x0, x0, #1
    2d80: 00 00 40 39  	ldrb	w0, [x0]
    2d84: 00 5c 18 53  	lsl	w0, w0, #8
    2d88: 02 00 00 14  	b	0x2d90 <.text+0x1d90>
    2d8c: 00 00 80 52  	mov	w0, #0
    2d90: 00 00 01 2a  	orr	w0, w0, w1
    2d94: 01 7c 40 93  	sxtw	x1, w0
    2d98: e0 af 40 f9  	ldr	x0, [sp, #344]
    2d9c: 20 00 00 8a  	and	x0, x1, x0
    2da0: e0 4f 00 f9  	str	x0, [sp, #152]
    2da4: e0 4f 40 f9  	ldr	x0, [sp, #152]
    2da8: 1f bc 00 f1  	cmp	x0, #47
    2dac: 89 00 00 54  	b.ls	0x2dbc <.text+0x1dbc>
    2db0: e0 4f 40 f9  	ldr	x0, [sp, #152]
    2db4: 1f e4 00 f1  	cmp	x0, #57
    2db8: 89 fb ff 54  	b.ls	0x2d28 <.text+0x1d28>
    2dbc: e0 b3 40 f9  	ldr	x0, [sp, #352]
    2dc0: e0 03 00 cb  	neg	x0, x0
    2dc4: e1 3b 40 f9  	ldr	x1, [sp, #112]
    2dc8: 20 00 00 8b  	add	x0, x1, x0
    2dcc: e0 3b 00 f9  	str	x0, [sp, #112]
    2dd0: e0 3f 40 f9  	ldr	x0, [sp, #120]
    2dd4: 00 00 75 92  	and	x0, x0, #0x800
    2dd8: 1f 00 00 f1  	cmp	x0, #0
    2ddc: e1 00 00 54  	b.ne	0x2df8 <.text+0x1df8>
    2de0: e0 3f 40 f9  	ldr	x0, [sp, #120]
    2de4: 00 00 77 b2  	orr	x0, x0, #0x200
    2de8: e0 3f 00 f9  	str	x0, [sp, #120]
    2dec: e0 93 40 f9  	ldr	x0, [sp, #288]
    2df0: e0 ab 00 f9  	str	x0, [sp, #336]
    2df4: 0d 00 00 14  	b	0x2e28 <.text+0x1e28>
    2df8: e0 93 40 f9  	ldr	x0, [sp, #288]
    2dfc: e0 a7 00 f9  	str	x0, [sp, #328]
    2e00: 0a 00 00 14  	b	0x2e28 <.text+0x1e28>
    2e04: e0 b3 40 f9  	ldr	x0, [sp, #352]
    2e08: e0 03 00 cb  	neg	x0, x0
    2e0c: e1 3b 40 f9  	ldr	x1, [sp, #112]
    2e10: 20 00 00 8b  	add	x0, x1, x0
    2e14: e0 3b 00 f9  	str	x0, [sp, #112]
    2e18: ff a7 00 f9  	str	xzr, [sp, #328]
    2e1c: 20 00 80 52  	mov	w0, #1
    2e20: e0 3f 04 39  	strb	w0, [sp, #271]
    2e24: 1f 20 03 d5  	nop
    2e28: e0 3f 44 39  	ldrb	w0, [sp, #271]
    2e2c: 1f 00 00 71  	cmp	w0, #0
    2e30: a0 e2 ff 54  	b.eq	0x2a84 <.text+0x1a84>
    2e34: e0 4f 40 f9  	ldr	x0, [sp, #152]
    2e38: 00 28 00 d1  	sub	x0, x0, #10
    2e3c: 1f b8 01 f1  	cmp	x0, #110
    2e40: 08 54 00 54  	b.hi	0x38c0 <.text+0x28c0>
    2e44: 1f b8 01 71  	cmp	w0, #110
    2e48: c8 53 00 54  	b.hi	0x38c0 <.text+0x28c0>
    2e4c: 01 00 00 f0  	adrp	x1, 0x5000 <.text+0x1e58>
    2e50: 21 60 16 91  	add	x1, x1, #1432
    2e54: 20 58 60 b8  	ldr	w0, [x1, w0, uxtw #2]
    2e58: 61 00 00 10  	adr	x1, #12
    2e5c: 20 c8 20 8b  	add	x0, x1, w0, sxtw #2
    2e60: 00 00 1f d6  	br	x0
    2e64: e1 3f 40 f9  	ldr	x1, [sp, #120]
    2e68: c0 06 80 92  	mov	x0, #-55
    2e6c: 20 00 00 8a  	and	x0, x1, x0
    2e70: e0 3f 00 f9  	str	x0, [sp, #120]
    2e74: e0 3f 40 f9  	ldr	x0, [sp, #120]
    2e78: 00 00 7c b2  	orr	x0, x0, #0x10
    2e7c: e0 3f 00 f9  	str	x0, [sp, #120]
    2e80: e0 3f 40 f9  	ldr	x0, [sp, #120]
    2e84: 00 00 7b b2  	orr	x0, x0, #0x20
    2e88: e0 3f 00 f9  	str	x0, [sp, #120]
    2e8c: e0 3f 40 f9  	ldr	x0, [sp, #120]
    2e90: 00 00 79 b2  	orr	x0, x0, #0x80
    2e94: e0 3f 00 f9  	str	x0, [sp, #120]
    2e98: e0 3f 40 f9  	ldr	x0, [sp, #120]
    2e9c: 00 00 79 92  	and	x0, x0, #0x80
    2ea0: 1f 00 00 f1  	cmp	x0, #0
    2ea4: e1 00 00 54  	b.ne	0x2ec0 <.text+0x1ec0>
    2ea8: e0 3f 40 f9  	ldr	x0, [sp, #120]
    2eac: 00 f8 7e 92  	and	x0, x0, #0xfffffffffffffffd
    2eb0: e0 3f 00 f9  	str	x0, [sp, #120]
    2eb4: e0 3f 40 f9  	ldr	x0, [sp, #120]
    2eb8: 00 00 72 b2  	orr	x0, x0, #0x4000
    2ebc: e0 3f 00 f9  	str	x0, [sp, #120]
    2ec0: e0 3f 40 f9  	ldr	x0, [sp, #120]
    2ec4: 00 00 7c 92  	and	x0, x0, #0x10
    2ec8: 1f 00 00 f1  	cmp	x0, #0
    2ecc: a1 04 00 54  	b.ne	0x2f60 <.text+0x1f60>
    2ed0: e0 37 40 f9  	ldr	x0, [sp, #104]
    2ed4: 1f 00 00 f1  	cmp	x0, #0
    2ed8: 21 03 00 54  	b.ne	0x2f3c <.text+0x1f3c>
    2edc: 61 1a 40 b9  	ldr	w1, [x19, #24]
    2ee0: 60 02 40 f9  	ldr	x0, [x19]
    2ee4: 3f 00 00 71  	cmp	w1, #0
    2ee8: ab 00 00 54  	b.lt	0x2efc <.text+0x1efc>
    2eec: 01 3c 00 91  	add	x1, x0, #15
    2ef0: 21 f0 7d 92  	and	x1, x1, #0xfffffffffffffff8
    2ef4: 61 02 00 f9  	str	x1, [x19]
    2ef8: 0d 00 00 14  	b	0x2f2c <.text+0x1f2c>
    2efc: 22 20 00 11  	add	w2, w1, #8
    2f00: 62 1a 00 b9  	str	w2, [x19, #24]
    2f04: 62 1a 40 b9  	ldr	w2, [x19, #24]
    2f08: 5f 00 00 71  	cmp	w2, #0
    2f0c: ad 00 00 54  	b.le	0x2f20 <.text+0x1f20>
    2f10: 01 3c 00 91  	add	x1, x0, #15
    2f14: 21 f0 7d 92  	and	x1, x1, #0xfffffffffffffff8
    2f18: 61 02 00 f9  	str	x1, [x19]
    2f1c: 04 00 00 14  	b	0x2f2c <.text+0x1f2c>
    2f20: 62 06 40 f9  	ldr	x2, [x19, #8]
    2f24: 20 7c 40 93  	sxtw	x0, w1
    2f28: 40 00 00 8b  	add	x0, x2, x0
    2f2c: 00 00 40 f9  	ldr	x0, [x0]
    2f30: 00 7c 40 93  	sxtw	x0, w0
    2f34: e0 a3 00 f9  	str	x0, [sp, #320]
    2f38: 2a 00 00 14  	b	0x2fe0 <.text+0x1fe0>
    2f3c: e0 37 40 f9  	ldr	x0, [sp, #104]
    2f40: 00 20 00 91  	add	x0, x0, #8
    2f44: e0 37 00 f9  	str	x0, [sp, #104]
    2f48: e0 37 40 f9  	ldr	x0, [sp, #104]
    2f4c: 00 20 00 d1  	sub	x0, x0, #8
    2f50: 00 00 40 b9  	ldr	w0, [x0]
    2f54: 00 7c 40 93  	sxtw	x0, w0
    2f58: e0 a3 00 f9  	str	x0, [sp, #320]
    2f5c: 21 00 00 14  	b	0x2fe0 <.text+0x1fe0>
    2f60: e0 37 40 f9  	ldr	x0, [sp, #104]
    2f64: 1f 00 00 f1  	cmp	x0, #0
    2f68: 01 03 00 54  	b.ne	0x2fc8 <.text+0x1fc8>
    2f6c: 61 1a 40 b9  	ldr	w1, [x19, #24]
    2f70: 60 02 40 f9  	ldr	x0, [x19]
    2f74: 3f 00 00 71  	cmp	w1, #0
    2f78: ab 00 00 54  	b.lt	0x2f8c <.text+0x1f8c>
    2f7c: 01 3c 00 91  	add	x1, x0, #15
    2f80: 21 f0 7d 92  	and	x1, x1, #0xfffffffffffffff8
    2f84: 61 02 00 f9  	str	x1, [x19]
    2f88: 0d 00 00 14  	b	0x2fbc <.text+0x1fbc>
    2f8c: 22 20 00 11  	add	w2, w1, #8
    2f90: 62 1a 00 b9  	str	w2, [x19, #24]
    2f94: 62 1a 40 b9  	ldr	w2, [x19, #24]
    2f98: 5f 00 00 71  	cmp	w2, #0
    2f9c: ad 00 00 54  	b.le	0x2fb0 <.text+0x1fb0>
    2fa0: 01 3c 00 91  	add	x1, x0, #15
    2fa4: 21 f0 7d 92  	and	x1, x1, #0xfffffffffffffff8
    2fa8: 61 02 00 f9  	str	x1, [x19]
    2fac: 04 00 00 14  	b	0x2fbc <.text+0x1fbc>
    2fb0: 62 06 40 f9  	ldr	x2, [x19, #8]
    2fb4: 20 7c 40 93  	sxtw	x0, w1
    2fb8: 40 00 00 8b  	add	x0, x2, x0
    2fbc: 00 00 40 f9  	ldr	x0, [x0]
    2fc0: e0 a3 00 f9  	str	x0, [sp, #320]
    2fc4: 07 00 00 14  	b	0x2fe0 <.text+0x1fe0>
    2fc8: e0 37 40 f9  	ldr	x0, [sp, #104]
    2fcc: 00 20 00 91  	add	x0, x0, #8
    2fd0: e0 37 00 f9  	str	x0, [sp, #104]
    2fd4: e0 37 40 f9  	ldr	x0, [sp, #104]
    2fd8: 00 80 5f f8  	ldur	x0, [x0, #-8]
    2fdc: e0 a3 00 f9  	str	x0, [sp, #320]
    2fe0: e0 3f 40 f9  	ldr	x0, [sp, #120]
    2fe4: 00 00 7e 92  	and	x0, x0, #0x4
    2fe8: 1f 00 00 f1  	cmp	x0, #0
    2fec: 60 00 00 54  	b.eq	0x2ff8 <.text+0x1ff8>
    2ff0: 00 04 80 52  	mov	w0, #32
    2ff4: e0 ff 03 39  	strb	w0, [sp, #255]
    2ff8: e0 3f 40 f9  	ldr	x0, [sp, #120]
    2ffc: 00 00 7f 92  	and	x0, x0, #0x2
    3000: 1f 00 00 f1  	cmp	x0, #0
    3004: 60 00 00 54  	b.eq	0x3010 <.text+0x2010>
    3008: 60 05 80 52  	mov	w0, #43
    300c: e0 ff 03 39  	strb	w0, [sp, #255]
    3010: e0 3f 40 f9  	ldr	x0, [sp, #120]
    3014: 00 00 7d 92  	and	x0, x0, #0x8
    3018: 1f 00 00 f1  	cmp	x0, #0
    301c: 60 00 00 54  	b.eq	0x3028 <.text+0x2028>
    3020: 20 00 80 52  	mov	w0, #1
    3024: e0 f7 03 39  	strb	w0, [sp, #253]
    3028: e0 3f 40 f9  	ldr	x0, [sp, #120]
    302c: 00 00 79 92  	and	x0, x0, #0x80
    3030: 1f 00 00 f1  	cmp	x0, #0
    3034: e1 04 00 54  	b.ne	0x30d0 <.text+0x20d0>
    3038: 40 01 80 d2  	mov	x0, #10
    303c: e0 77 00 f9  	str	x0, [sp, #232]
    3040: e0 f7 43 39  	ldrb	w0, [sp, #253]
    3044: 1f 00 00 71  	cmp	w0, #0
    3048: c0 00 00 54  	b.eq	0x3060 <.text+0x2060>
    304c: e0 3f 40 f9  	ldr	x0, [sp, #120]
    3050: 00 f8 7a 92  	and	x0, x0, #0xffffffffffffffdf
    3054: e0 3f 00 f9  	str	x0, [sp, #120]
    3058: 20 00 80 d2  	mov	x0, #1
    305c: e0 a7 00 f9  	str	x0, [sp, #328]
    3060: e0 a3 40 f9  	ldr	x0, [sp, #320]
    3064: 1f 00 00 f1  	cmp	x0, #0
    3068: ca 01 00 54  	b.ge	0x30a0 <.text+0x20a0>
    306c: e0 3f 40 f9  	ldr	x0, [sp, #120]
    3070: 00 00 72 92  	and	x0, x0, #0x4000
    3074: 1f 00 00 f1  	cmp	x0, #0
    3078: 41 01 00 54  	b.ne	0x30a0 <.text+0x20a0>
    307c: e0 3f 40 f9  	ldr	x0, [sp, #120]
    3080: 00 00 7f b2  	orr	x0, x0, #0x2
    3084: e0 3f 00 f9  	str	x0, [sp, #120]
    3088: a0 05 80 52  	mov	w0, #45
    308c: e0 ff 03 39  	strb	w0, [sp, #255]
    3090: e0 a3 40 f9  	ldr	x0, [sp, #320]
    3094: e0 03 00 cb  	neg	x0, x0
    3098: e0 a3 00 f9  	str	x0, [sp, #320]
    309c: 1a 00 00 14  	b	0x3104 <.text+0x2104>
    30a0: e0 3f 40 f9  	ldr	x0, [sp, #120]
    30a4: 00 00 72 92  	and	x0, x0, #0x4000
    30a8: 1f 00 00 f1  	cmp	x0, #0
    30ac: c0 02 00 54  	b.eq	0x3104 <.text+0x2104>
    30b0: e0 3f 40 f9  	ldr	x0, [sp, #120]
    30b4: 00 00 7c 92  	and	x0, x0, #0x10
    30b8: 1f 00 00 f1  	cmp	x0, #0
    30bc: 41 02 00 54  	b.ne	0x3104 <.text+0x2104>
    30c0: e0 a3 40 f9  	ldr	x0, [sp, #320]
    30c4: e0 03 00 2a  	mov	w0, w0
    30c8: e0 a3 00 f9  	str	x0, [sp, #320]
    30cc: 0e 00 00 14  	b	0x3104 <.text+0x2104>
    30d0: 00 02 80 d2  	mov	x0, #16
    30d4: e0 77 00 f9  	str	x0, [sp, #232]
    30d8: ff f7 03 39  	strb	wzr, [sp, #253]
    30dc: e0 3f 40 f9  	ldr	x0, [sp, #120]
    30e0: 00 00 7c 92  	and	x0, x0, #0x10
    30e4: 1f 00 00 f1  	cmp	x0, #0
    30e8: e1 00 00 54  	b.ne	0x3104 <.text+0x2104>
    30ec: e0 a3 40 f9  	ldr	x0, [sp, #320]
    30f0: 1f 00 00 f1  	cmp	x0, #0
    30f4: 8a 00 00 54  	b.ge	0x3104 <.text+0x2104>
    30f8: e0 a3 40 f9  	ldr	x0, [sp, #320]
    30fc: e0 03 00 2a  	mov	w0, w0
    3100: e0 a3 00 f9  	str	x0, [sp, #320]
    3104: e0 83 02 91  	add	x0, sp, #160
    3108: e2 77 40 f9  	ldr	x2, [sp, #232]
    310c: e1 a3 40 f9  	ldr	x1, [sp, #320]
    3110: 00 fd ff 97  	bl	0x2510 <.text+0x1510>
    3114: e1 03 00 aa  	mov	x1, x0
    3118: e0 83 02 91  	add	x0, sp, #160
    311c: 20 00 00 cb  	sub	x0, x1, x0
    3120: e0 93 00 f9  	str	x0, [sp, #288]
    3124: e0 a3 40 f9  	ldr	x0, [sp, #320]
    3128: 1f 00 00 f1  	cmp	x0, #0
    312c: a1 00 00 54  	b.ne	0x3140 <.text+0x2140>
    3130: e0 a7 40 f9  	ldr	x0, [sp, #328]
    3134: 1f 00 00 f1  	cmp	x0, #0
    3138: 41 00 00 54  	b.ne	0x3140 <.text+0x2140>
    313c: ff 93 00 f9  	str	xzr, [sp, #288]
    3140: e1 83 02 91  	add	x1, sp, #160
    3144: e0 93 40 f9  	ldr	x0, [sp, #288]
    3148: 20 00 00 8b  	add	x0, x1, x0
    314c: e0 9f 00 f9  	str	x0, [sp, #312]
    3150: e1 93 40 f9  	ldr	x1, [sp, #288]
    3154: e0 f3 01 b2  	mov	x0, #-6148914691236517206
    3158: 60 55 95 f2  	movk	x0, #43691
    315c: 20 7c c0 9b  	umulh	x0, x1, x0
    3160: 02 fc 41 d3  	lsr	x2, x0, #1
    3164: e0 03 02 aa  	mov	x0, x2
    3168: 00 f8 7f d3  	lsl	x0, x0, #1
    316c: 00 00 02 8b  	add	x0, x0, x2
    3170: 20 00 00 cb  	sub	x0, x1, x0
    3174: e0 7b 00 f9  	str	x0, [sp, #240]
    3178: e0 7b 40 f9  	ldr	x0, [sp, #240]
    317c: 1f 00 00 f1  	cmp	x0, #0
    3180: a0 00 00 54  	b.eq	0x3194 <.text+0x2194>
    3184: 61 00 80 d2  	mov	x1, #3
    3188: e0 7b 40 f9  	ldr	x0, [sp, #240]
    318c: 20 00 00 cb  	sub	x0, x1, x0
    3190: e0 7b 00 f9  	str	x0, [sp, #240]
    3194: e0 f7 43 39  	ldrb	w0, [sp, #253]
    3198: 1f 00 00 71  	cmp	w0, #0
    319c: a0 01 00 54  	b.eq	0x31d0 <.text+0x21d0>
    31a0: e0 93 40 f9  	ldr	x0, [sp, #288]
    31a4: 1f 00 00 f1  	cmp	x0, #0
    31a8: 40 01 00 54  	b.eq	0x31d0 <.text+0x21d0>
    31ac: e0 93 40 f9  	ldr	x0, [sp, #288]
    31b0: 01 04 00 d1  	sub	x1, x0, #1
    31b4: e0 f3 01 b2  	mov	x0, #-6148914691236517206
    31b8: 60 55 95 f2  	movk	x0, #43691
    31bc: 20 7c c0 9b  	umulh	x0, x1, x0
    31c0: 00 fc 41 d3  	lsr	x0, x0, #1
    31c4: e1 93 40 f9  	ldr	x1, [sp, #288]
    31c8: 20 00 00 8b  	add	x0, x1, x0
    31cc: e0 93 00 f9  	str	x0, [sp, #288]
    31d0: e0 ff 43 39  	ldrb	w0, [sp, #255]
    31d4: 1f 00 00 71  	cmp	w0, #0
    31d8: e0 00 00 54  	b.eq	0x31f4 <.text+0x21f4>
    31dc: e0 93 40 f9  	ldr	x0, [sp, #288]
    31e0: 00 04 00 91  	add	x0, x0, #1
    31e4: e0 93 00 f9  	str	x0, [sp, #288]
    31e8: e0 a7 40 f9  	ldr	x0, [sp, #328]
    31ec: 00 04 00 91  	add	x0, x0, #1
    31f0: e0 a7 00 f9  	str	x0, [sp, #328]
    31f4: e0 3f 40 f9  	ldr	x0, [sp, #120]
    31f8: 00 00 74 b2  	orr	x0, x0, #0x1000
    31fc: e0 3f 00 f9  	str	x0, [sp, #120]
    3200: 20 00 80 52  	mov	w0, #1
    3204: e0 fb 03 39  	strb	w0, [sp, #254]
    3208: e0 3f 40 f9  	ldr	x0, [sp, #120]
    320c: 00 00 7b 92  	and	x0, x0, #0x20
    3210: 1f 00 00 f1  	cmp	x0, #0
    3214: 20 36 00 54  	b.eq	0x38d8 <.text+0x28d8>
    3218: e0 3f 40 f9  	ldr	x0, [sp, #120]
    321c: 00 00 40 92  	and	x0, x0, #0x1
    3220: 1f 00 00 f1  	cmp	x0, #0
    3224: a1 35 00 54  	b.ne	0x38d8 <.text+0x28d8>
    3228: e0 3f 40 f9  	ldr	x0, [sp, #120]
    322c: 00 00 77 92  	and	x0, x0, #0x200
    3230: 1f 00 00 f1  	cmp	x0, #0
    3234: 20 35 00 54  	b.eq	0x38d8 <.text+0x28d8>
    3238: e0 3f 40 f9  	ldr	x0, [sp, #120]
    323c: 00 00 75 92  	and	x0, x0, #0x800
    3240: 1f 00 00 f1  	cmp	x0, #0
    3244: a1 34 00 54  	b.ne	0x38d8 <.text+0x28d8>
    3248: e0 ab 40 f9  	ldr	x0, [sp, #336]
    324c: e0 a7 00 f9  	str	x0, [sp, #328]
    3250: a2 01 00 14  	b	0x38d8 <.text+0x28d8>
    3254: e0 3f 40 f9  	ldr	x0, [sp, #120]
    3258: 00 00 76 b2  	orr	x0, x0, #0x400
    325c: e0 3f 00 f9  	str	x0, [sp, #120]
    3260: e0 37 40 f9  	ldr	x0, [sp, #104]
    3264: 1f 00 00 f1  	cmp	x0, #0
    3268: 01 03 00 54  	b.ne	0x32c8 <.text+0x22c8>
    326c: 61 1a 40 b9  	ldr	w1, [x19, #24]
    3270: 60 02 40 f9  	ldr	x0, [x19]
    3274: 3f 00 00 71  	cmp	w1, #0
    3278: ab 00 00 54  	b.lt	0x328c <.text+0x228c>
    327c: 01 3c 00 91  	add	x1, x0, #15
    3280: 21 f0 7d 92  	and	x1, x1, #0xfffffffffffffff8
    3284: 61 02 00 f9  	str	x1, [x19]
    3288: 0d 00 00 14  	b	0x32bc <.text+0x22bc>
    328c: 22 20 00 11  	add	w2, w1, #8
    3290: 62 1a 00 b9  	str	w2, [x19, #24]
    3294: 62 1a 40 b9  	ldr	w2, [x19, #24]
    3298: 5f 00 00 71  	cmp	w2, #0
    329c: ad 00 00 54  	b.le	0x32b0 <.text+0x22b0>
    32a0: 01 3c 00 91  	add	x1, x0, #15
    32a4: 21 f0 7d 92  	and	x1, x1, #0xfffffffffffffff8
    32a8: 61 02 00 f9  	str	x1, [x19]
    32ac: 04 00 00 14  	b	0x32bc <.text+0x22bc>
    32b0: 62 06 40 f9  	ldr	x2, [x19, #8]
    32b4: 20 7c 40 93  	sxtw	x0, w1
    32b8: 40 00 00 8b  	add	x0, x2, x0
    32bc: 00 00 40 f9  	ldr	x0, [x0]
    32c0: e0 9f 00 f9  	str	x0, [sp, #312]
    32c4: 07 00 00 14  	b	0x32e0 <.text+0x22e0>
    32c8: e0 37 40 f9  	ldr	x0, [sp, #104]
    32cc: 00 20 00 91  	add	x0, x0, #8
    32d0: e0 37 00 f9  	str	x0, [sp, #104]
    32d4: e0 37 40 f9  	ldr	x0, [sp, #104]
    32d8: 00 80 5f f8  	ldur	x0, [x0, #-8]
    32dc: e0 9f 00 f9  	str	x0, [sp, #312]
    32e0: e0 9f 40 f9  	ldr	x0, [sp, #312]
    32e4: 1f 00 00 f1  	cmp	x0, #0
    32e8: e1 00 00 54  	b.ne	0x3304 <.text+0x2304>
    32ec: e0 3f 40 f9  	ldr	x0, [sp, #120]
    32f0: 00 f8 75 92  	and	x0, x0, #0xfffffffffffffbff
    32f4: e0 3f 00 f9  	str	x0, [sp, #120]
    32f8: 00 00 00 b0  	adrp	x0, 0x4000 <.text+0x22fc>
    32fc: 00 e0 2e 91  	add	x0, x0, #3000
    3300: e0 9f 00 f9  	str	x0, [sp, #312]
    3304: e0 3f 40 f9  	ldr	x0, [sp, #120]
    3308: 00 00 75 92  	and	x0, x0, #0x800
    330c: 1f 00 00 f1  	cmp	x0, #0
    3310: 81 2e 00 54  	b.ne	0x38e0 <.text+0x28e0>
    3314: ff a7 00 f9  	str	xzr, [sp, #328]
    3318: 72 01 00 14  	b	0x38e0 <.text+0x28e0>
    331c: e0 37 40 f9  	ldr	x0, [sp, #104]
    3320: 1f 00 00 f1  	cmp	x0, #0
    3324: 21 03 00 54  	b.ne	0x3388 <.text+0x2388>
    3328: 61 1a 40 b9  	ldr	w1, [x19, #24]
    332c: 60 02 40 f9  	ldr	x0, [x19]
    3330: 3f 00 00 71  	cmp	w1, #0
    3334: ab 00 00 54  	b.lt	0x3348 <.text+0x2348>
    3338: 01 3c 00 91  	add	x1, x0, #15
    333c: 21 f0 7d 92  	and	x1, x1, #0xfffffffffffffff8
    3340: 61 02 00 f9  	str	x1, [x19]
    3344: 0d 00 00 14  	b	0x3378 <.text+0x2378>
    3348: 22 20 00 11  	add	w2, w1, #8
    334c: 62 1a 00 b9  	str	w2, [x19, #24]
    3350: 62 1a 40 b9  	ldr	w2, [x19, #24]
    3354: 5f 00 00 71  	cmp	w2, #0
    3358: ad 00 00 54  	b.le	0x336c <.text+0x236c>
    335c: 01 3c 00 91  	add	x1, x0, #15
    3360: 21 f0 7d 92  	and	x1, x1, #0xfffffffffffffff8
    3364: 61 02 00 f9  	str	x1, [x19]
    3368: 04 00 00 14  	b	0x3378 <.text+0x2378>
    336c: 62 06 40 f9  	ldr	x2, [x19, #8]
    3370: 20 7c 40 93  	sxtw	x0, w1
    3374: 40 00 00 8b  	add	x0, x2, x0
    3378: 00 00 40 f9  	ldr	x0, [x0]
    337c: 00 3c 40 92  	and	x0, x0, #0xffff
    3380: e0 4b 00 f9  	str	x0, [sp, #144]
    3384: 09 00 00 14  	b	0x33a8 <.text+0x23a8>
    3388: e0 37 40 f9  	ldr	x0, [sp, #104]
    338c: 00 20 00 91  	add	x0, x0, #8
    3390: e0 37 00 f9  	str	x0, [sp, #104]
    3394: e0 37 40 f9  	ldr	x0, [sp, #104]
    3398: 00 20 00 d1  	sub	x0, x0, #8
    339c: 00 00 40 f9  	ldr	x0, [x0]
    33a0: 00 3c 40 92  	and	x0, x0, #0xffff
    33a4: e0 4b 00 f9  	str	x0, [sp, #144]
    33a8: e0 43 02 91  	add	x0, sp, #144
    33ac: e0 9f 00 f9  	str	x0, [sp, #312]
    33b0: e0 3f 40 f9  	ldr	x0, [sp, #120]
    33b4: 00 00 76 b2  	orr	x0, x0, #0x400
    33b8: e0 3f 00 f9  	str	x0, [sp, #120]
    33bc: 4e 01 00 14  	b	0x38f4 <.text+0x28f4>
    33c0: e0 37 40 f9  	ldr	x0, [sp, #104]
    33c4: 1f 00 00 f1  	cmp	x0, #0
    33c8: 01 03 00 54  	b.ne	0x3428 <.text+0x2428>
    33cc: 61 1a 40 b9  	ldr	w1, [x19, #24]
    33d0: 60 02 40 f9  	ldr	x0, [x19]
    33d4: 3f 00 00 71  	cmp	w1, #0
    33d8: ab 00 00 54  	b.lt	0x33ec <.text+0x23ec>
    33dc: 01 3c 00 91  	add	x1, x0, #15
    33e0: 21 f0 7d 92  	and	x1, x1, #0xfffffffffffffff8
    33e4: 61 02 00 f9  	str	x1, [x19]
    33e8: 0d 00 00 14  	b	0x341c <.text+0x241c>
    33ec: 22 20 00 11  	add	w2, w1, #8
    33f0: 62 1a 00 b9  	str	w2, [x19, #24]
    33f4: 62 1a 40 b9  	ldr	w2, [x19, #24]
    33f8: 5f 00 00 71  	cmp	w2, #0
    33fc: ad 00 00 54  	b.le	0x3410 <.text+0x2410>
    3400: 01 3c 00 91  	add	x1, x0, #15
    3404: 21 f0 7d 92  	and	x1, x1, #0xfffffffffffffff8
    3408: 61 02 00 f9  	str	x1, [x19]
    340c: 04 00 00 14  	b	0x341c <.text+0x241c>
    3410: 62 06 40 f9  	ldr	x2, [x19, #8]
    3414: 20 7c 40 93  	sxtw	x0, w1
    3418: 40 00 00 8b  	add	x0, x2, x0
    341c: 00 00 40 f9  	ldr	x0, [x0]
    3420: e0 9b 00 f9  	str	x0, [sp, #304]
    3424: 07 00 00 14  	b	0x3440 <.text+0x2440>
    3428: e0 37 40 f9  	ldr	x0, [sp, #104]
    342c: 00 20 00 91  	add	x0, x0, #8
    3430: e0 37 00 f9  	str	x0, [sp, #104]
    3434: e0 37 40 f9  	ldr	x0, [sp, #104]
    3438: 00 80 5f f8  	ldur	x0, [x0, #-8]
    343c: e0 9b 00 f9  	str	x0, [sp, #304]
    3440: e0 9b 40 f9  	ldr	x0, [sp, #304]
    3444: 1f 00 00 f1  	cmp	x0, #0
    3448: a1 00 00 54  	b.ne	0x345c <.text+0x245c>
    344c: 00 00 00 b0  	adrp	x0, 0x4000 <.text+0x2450>
    3450: 00 20 2f 91  	add	x0, x0, #3016
    3454: e0 9f 00 f9  	str	x0, [sp, #312]
    3458: 27 01 00 14  	b	0x38f4 <.text+0x28f4>
    345c: e0 9b 40 f9  	ldr	x0, [sp, #304]
    3460: 21 fb ff 97  	bl	0x20e4 <.text+0x10e4>
    3464: e0 d7 00 b9  	str	w0, [sp, #212]
    3468: e0 9b 40 f9  	ldr	x0, [sp, #304]
    346c: 00 10 00 91  	add	x0, x0, #4
    3470: fa fa ff 97  	bl	0x2058 <.text+0x1058>
    3474: e0 a7 01 79  	strh	w0, [sp, #210]
    3478: e0 9b 40 f9  	ldr	x0, [sp, #304]
    347c: 00 18 00 91  	add	x0, x0, #6
    3480: f6 fa ff 97  	bl	0x2058 <.text+0x1058>
    3484: e0 a3 01 79  	strh	w0, [sp, #208]
    3488: e1 a7 41 79  	ldrh	w1, [sp, #210]
    348c: e2 a3 41 79  	ldrh	w2, [sp, #208]
    3490: e0 9b 40 f9  	ldr	x0, [sp, #304]
    3494: 00 20 40 39  	ldrb	w0, [x0, #8]
    3498: ea 03 00 2a  	mov	w10, w0
    349c: e0 9b 40 f9  	ldr	x0, [sp, #304]
    34a0: 00 24 40 39  	ldrb	w0, [x0, #9]
    34a4: e3 03 00 2a  	mov	w3, w0
    34a8: e0 9b 40 f9  	ldr	x0, [sp, #304]
    34ac: 00 28 40 39  	ldrb	w0, [x0, #10]
    34b0: e4 03 00 2a  	mov	w4, w0
    34b4: e0 9b 40 f9  	ldr	x0, [sp, #304]
    34b8: 00 2c 40 39  	ldrb	w0, [x0, #11]
    34bc: e5 03 00 2a  	mov	w5, w0
    34c0: e0 9b 40 f9  	ldr	x0, [sp, #304]
    34c4: 00 30 40 39  	ldrb	w0, [x0, #12]
    34c8: e6 03 00 2a  	mov	w6, w0
    34cc: e0 9b 40 f9  	ldr	x0, [sp, #304]
    34d0: 00 34 40 39  	ldrb	w0, [x0, #13]
    34d4: e7 03 00 2a  	mov	w7, w0
    34d8: e0 9b 40 f9  	ldr	x0, [sp, #304]
    34dc: 00 38 40 39  	ldrb	w0, [x0, #14]
    34e0: e9 03 00 2a  	mov	w9, w0
    34e4: e0 9b 40 f9  	ldr	x0, [sp, #304]
    34e8: 00 3c 40 39  	ldrb	w0, [x0, #15]
    34ec: e8 83 02 91  	add	x8, sp, #160
    34f0: e0 33 00 b9  	str	w0, [sp, #48]
    34f4: e9 2b 00 b9  	str	w9, [sp, #40]
    34f8: e7 23 00 b9  	str	w7, [sp, #32]
    34fc: e6 1b 00 b9  	str	w6, [sp, #24]
    3500: e5 13 00 b9  	str	w5, [sp, #16]
    3504: e4 0b 00 b9  	str	w4, [sp, #8]
    3508: e3 03 00 b9  	str	w3, [sp]
    350c: e7 03 0a 2a  	mov	w7, w10
    3510: e6 03 02 2a  	mov	w6, w2
    3514: e5 03 01 2a  	mov	w5, w1
    3518: e4 d7 40 b9  	ldr	w4, [sp, #212]
    351c: 00 00 00 b0  	adrp	x0, 0x4000 <.text+0x2520>
    3520: 03 60 2f 91  	add	x3, x0, #3032
    3524: 02 00 80 d2  	mov	x2, #0
    3528: c1 04 80 d2  	mov	x1, #38
    352c: e0 03 08 aa  	mov	x0, x8
    3530: e0 02 00 94  	bl	0x40b0 <.text+0x30b0>
    3534: e0 83 02 91  	add	x0, sp, #160
    3538: e0 9f 00 f9  	str	x0, [sp, #312]
    353c: ee 00 00 14  	b	0x38f4 <.text+0x28f4>
    3540: e0 37 40 f9  	ldr	x0, [sp, #104]
    3544: 1f 00 00 f1  	cmp	x0, #0
    3548: 01 03 00 54  	b.ne	0x35a8 <.text+0x25a8>
    354c: 61 1a 40 b9  	ldr	w1, [x19, #24]
    3550: 60 02 40 f9  	ldr	x0, [x19]
    3554: 3f 00 00 71  	cmp	w1, #0
    3558: ab 00 00 54  	b.lt	0x356c <.text+0x256c>
    355c: 01 3c 00 91  	add	x1, x0, #15
    3560: 21 f0 7d 92  	and	x1, x1, #0xfffffffffffffff8
    3564: 61 02 00 f9  	str	x1, [x19]
    3568: 0d 00 00 14  	b	0x359c <.text+0x259c>
    356c: 22 20 00 11  	add	w2, w1, #8
    3570: 62 1a 00 b9  	str	w2, [x19, #24]
    3574: 62 1a 40 b9  	ldr	w2, [x19, #24]
    3578: 5f 00 00 71  	cmp	w2, #0
    357c: ad 00 00 54  	b.le	0x3590 <.text+0x2590>
    3580: 01 3c 00 91  	add	x1, x0, #15
    3584: 21 f0 7d 92  	and	x1, x1, #0xfffffffffffffff8
    3588: 61 02 00 f9  	str	x1, [x19]
    358c: 04 00 00 14  	b	0x359c <.text+0x259c>
    3590: 62 06 40 f9  	ldr	x2, [x19, #8]
    3594: 20 7c 40 93  	sxtw	x0, w1
    3598: 40 00 00 8b  	add	x0, x2, x0
    359c: 00 00 40 f9  	ldr	x0, [x0]
    35a0: e0 97 00 f9  	str	x0, [sp, #296]
    35a4: 07 00 00 14  	b	0x35c0 <.text+0x25c0>
    35a8: e0 37 40 f9  	ldr	x0, [sp, #104]
    35ac: 00 20 00 91  	add	x0, x0, #8
    35b0: e0 37 00 f9  	str	x0, [sp, #104]
    35b4: e0 37 40 f9  	ldr	x0, [sp, #104]
    35b8: 00 80 5f f8  	ldur	x0, [x0, #-8]
    35bc: e0 97 00 f9  	str	x0, [sp, #296]
    35c0: e0 97 40 f9  	ldr	x0, [sp, #296]
    35c4: 1f 00 00 f1  	cmp	x0, #0
    35c8: a1 00 00 54  	b.ne	0x35dc <.text+0x25dc>
    35cc: 00 00 00 b0  	adrp	x0, 0x4000 <.text+0x25d0>
    35d0: 00 40 30 91  	add	x0, x0, #3088
    35d4: e0 9f 00 f9  	str	x0, [sp, #312]
    35d8: c7 00 00 14  	b	0x38f4 <.text+0x28f4>
    35dc: e0 97 40 f9  	ldr	x0, [sp, #296]
    35e0: 00 08 40 39  	ldrb	w0, [x0, #2]
    35e4: e1 03 00 2a  	mov	w1, w0
    35e8: e0 97 40 f9  	ldr	x0, [sp, #296]
    35ec: 00 0c 40 39  	ldrb	w0, [x0, #3]
    35f0: e2 03 00 2a  	mov	w2, w0
    35f4: e0 97 40 f9  	ldr	x0, [sp, #296]
    35f8: 00 00 40 79  	ldrh	w0, [x0]
    35fc: e3 03 00 2a  	mov	w3, w0
    3600: e0 97 40 f9  	ldr	x0, [sp, #296]
    3604: 00 10 40 39  	ldrb	w0, [x0, #4]
    3608: e4 03 00 2a  	mov	w4, w0
    360c: e0 97 40 f9  	ldr	x0, [sp, #296]
    3610: 00 14 40 39  	ldrb	w0, [x0, #5]
    3614: e8 83 02 91  	add	x8, sp, #160
    3618: e0 03 00 b9  	str	w0, [sp]
    361c: e7 03 04 2a  	mov	w7, w4
    3620: e6 03 03 2a  	mov	w6, w3
    3624: e5 03 02 2a  	mov	w5, w2
    3628: e4 03 01 2a  	mov	w4, w1
    362c: 00 00 00 b0  	adrp	x0, 0x4000 <.text+0x2630>
    3630: 03 80 30 91  	add	x3, x0, #3104
    3634: 02 00 80 d2  	mov	x2, #0
    3638: c1 04 80 d2  	mov	x1, #38
    363c: e0 03 08 aa  	mov	x0, x8
    3640: 9c 02 00 94  	bl	0x40b0 <.text+0x30b0>
    3644: e0 83 02 91  	add	x0, sp, #160
    3648: e0 9f 00 f9  	str	x0, [sp, #312]
    364c: aa 00 00 14  	b	0x38f4 <.text+0x28f4>
    3650: e0 37 40 f9  	ldr	x0, [sp, #104]
    3654: 1f 00 00 f1  	cmp	x0, #0
    3658: 01 03 00 54  	b.ne	0x36b8 <.text+0x26b8>
    365c: 61 1a 40 b9  	ldr	w1, [x19, #24]
    3660: 60 02 40 f9  	ldr	x0, [x19]
    3664: 3f 00 00 71  	cmp	w1, #0
    3668: ab 00 00 54  	b.lt	0x367c <.text+0x267c>
    366c: 01 3c 00 91  	add	x1, x0, #15
    3670: 21 f0 7d 92  	and	x1, x1, #0xfffffffffffffff8
    3674: 61 02 00 f9  	str	x1, [x19]
    3678: 0d 00 00 14  	b	0x36ac <.text+0x26ac>
    367c: 22 20 00 11  	add	w2, w1, #8
    3680: 62 1a 00 b9  	str	w2, [x19, #24]
    3684: 62 1a 40 b9  	ldr	w2, [x19, #24]
    3688: 5f 00 00 71  	cmp	w2, #0
    368c: ad 00 00 54  	b.le	0x36a0 <.text+0x26a0>
    3690: 01 3c 00 91  	add	x1, x0, #15
    3694: 21 f0 7d 92  	and	x1, x1, #0xfffffffffffffff8
    3698: 61 02 00 f9  	str	x1, [x19]
    369c: 04 00 00 14  	b	0x36ac <.text+0x26ac>
    36a0: 62 06 40 f9  	ldr	x2, [x19, #8]
    36a4: 20 7c 40 93  	sxtw	x0, w1
    36a8: 40 00 00 8b  	add	x0, x2, x0
    36ac: 00 00 40 f9  	ldr	x0, [x0]
    36b0: e0 73 00 f9  	str	x0, [sp, #224]
    36b4: 07 00 00 14  	b	0x36d0 <.text+0x26d0>
    36b8: e0 37 40 f9  	ldr	x0, [sp, #104]
    36bc: 00 20 00 91  	add	x0, x0, #8
    36c0: e0 37 00 f9  	str	x0, [sp, #104]
    36c4: e0 37 40 f9  	ldr	x0, [sp, #104]
    36c8: 00 80 5f f8  	ldur	x0, [x0, #-8]
    36cc: e0 73 00 f9  	str	x0, [sp, #224]
    36d0: e0 83 02 91  	add	x0, sp, #160
    36d4: e0 9f 00 f9  	str	x0, [sp, #312]
    36d8: e0 73 40 f9  	ldr	x0, [sp, #224]
    36dc: 1f 00 00 f1  	cmp	x0, #0
    36e0: ca 02 00 54  	b.ge	0x3738 <.text+0x2738>
    36e4: e0 73 40 f9  	ldr	x0, [sp, #224]
    36e8: 00 f8 40 92  	and	x0, x0, #0x7fffffffffffffff
    36ec: e0 83 00 f9  	str	x0, [sp, #256]
    36f0: e0 83 40 f9  	ldr	x0, [sp, #256]
    36f4: 1f 00 00 f1  	cmp	x0, #0
    36f8: e0 03 00 54  	b.eq	0x3774 <.text+0x2774>
    36fc: e0 83 40 f9  	ldr	x0, [sp, #256]
    3700: 1f 8c 00 f1  	cmp	x0, #35
    3704: 88 03 00 54  	b.hi	0x3774 <.text+0x2774>
    3708: e0 83 40 f9  	ldr	x0, [sp, #256]
    370c: 01 04 00 d1  	sub	x1, x0, #1
    3710: e0 03 01 aa  	mov	x0, x1
    3714: 00 f4 7e d3  	lsl	x0, x0, #2
    3718: 00 00 01 8b  	add	x0, x0, x1
    371c: 00 f4 7e d3  	lsl	x0, x0, #2
    3720: 00 00 01 8b  	add	x0, x0, x1
    3724: 01 00 00 d0  	adrp	x1, 0x5000 <.text+0x272c>
    3728: 21 e0 0a 91  	add	x1, x1, #696
    372c: 00 00 01 8b  	add	x0, x0, x1
    3730: e0 9f 00 f9  	str	x0, [sp, #312]
    3734: 10 00 00 14  	b	0x3774 <.text+0x2774>
    3738: e0 73 40 f9  	ldr	x0, [sp, #224]
    373c: e0 83 00 f9  	str	x0, [sp, #256]
    3740: e0 83 40 f9  	ldr	x0, [sp, #256]
    3744: 1f 1c 00 f1  	cmp	x0, #7
    3748: 68 01 00 54  	b.hi	0x3774 <.text+0x2774>
    374c: e1 83 40 f9  	ldr	x1, [sp, #256]
    3750: e0 03 01 aa  	mov	x0, x1
    3754: 00 f8 7f d3  	lsl	x0, x0, #1
    3758: 00 00 01 8b  	add	x0, x0, x1
    375c: 00 f0 7d d3  	lsl	x0, x0, #3
    3760: 00 00 01 8b  	add	x0, x0, x1
    3764: 01 00 00 d0  	adrp	x1, 0x5000 <.text+0x276c>
    3768: 21 c0 07 91  	add	x1, x1, #496
    376c: 00 00 01 8b  	add	x0, x0, x1
    3770: e0 9f 00 f9  	str	x0, [sp, #312]
    3774: e0 83 02 91  	add	x0, sp, #160
    3778: e1 9f 40 f9  	ldr	x1, [sp, #312]
    377c: 3f 00 00 eb  	cmp	x1, x0
    3780: 41 0b 00 54  	b.ne	0x38e8 <.text+0x28e8>
    3784: e5 83 02 91  	add	x5, sp, #160
    3788: e4 73 40 f9  	ldr	x4, [sp, #224]
    378c: 00 00 00 b0  	adrp	x0, 0x4000 <.text+0x2790>
    3790: 03 00 31 91  	add	x3, x0, #3136
    3794: 02 00 80 d2  	mov	x2, #0
    3798: c1 04 80 d2  	mov	x1, #38
    379c: e0 03 05 aa  	mov	x0, x5
    37a0: 44 02 00 94  	bl	0x40b0 <.text+0x30b0>
    37a4: 51 00 00 14  	b	0x38e8 <.text+0x28e8>
    37a8: e1 3b 40 f9  	ldr	x1, [sp, #112]
    37ac: e0 b3 40 f9  	ldr	x0, [sp, #352]
    37b0: 20 00 00 8b  	add	x0, x1, x0
    37b4: e0 3b 00 f9  	str	x0, [sp, #112]
    37b8: e0 3b 40 f9  	ldr	x0, [sp, #112]
    37bc: 00 00 40 39  	ldrb	w0, [x0]
    37c0: e1 03 00 2a  	mov	w1, w0
    37c4: e0 b3 40 f9  	ldr	x0, [sp, #352]
    37c8: 1f 04 00 f1  	cmp	x0, #1
    37cc: c0 00 00 54  	b.eq	0x37e4 <.text+0x27e4>
    37d0: e0 3b 40 f9  	ldr	x0, [sp, #112]
    37d4: 00 04 00 91  	add	x0, x0, #1
    37d8: 00 00 40 39  	ldrb	w0, [x0]
    37dc: 00 5c 18 53  	lsl	w0, w0, #8
    37e0: 02 00 00 14  	b	0x37e8 <.text+0x27e8>
    37e4: 00 00 80 52  	mov	w0, #0
    37e8: 00 00 01 2a  	orr	w0, w0, w1
    37ec: 01 7c 40 93  	sxtw	x1, w0
    37f0: e0 af 40 f9  	ldr	x0, [sp, #344]
    37f4: 20 00 00 8a  	and	x0, x1, x0
    37f8: e0 4f 00 f9  	str	x0, [sp, #152]
    37fc: e0 4f 40 f9  	ldr	x0, [sp, #152]
    3800: 1f 28 00 f1  	cmp	x0, #10
    3804: a1 00 00 54  	b.ne	0x3818 <.text+0x2818>
    3808: 00 00 00 b0  	adrp	x0, 0x4000 <.text+0x280c>
    380c: 00 20 31 91  	add	x0, x0, #3144
    3810: e0 9f 00 f9  	str	x0, [sp, #312]
    3814: 38 00 00 14  	b	0x38f4 <.text+0x28f4>
    3818: 00 00 00 b0  	adrp	x0, 0x4000 <.text+0x281c>
    381c: 00 40 31 91  	add	x0, x0, #3152
    3820: e0 9f 00 f9  	str	x0, [sp, #312]
    3824: e0 b3 40 f9  	ldr	x0, [sp, #352]
    3828: e0 03 00 cb  	neg	x0, x0
    382c: e1 3b 40 f9  	ldr	x1, [sp, #112]
    3830: 20 00 00 8b  	add	x0, x1, x0
    3834: e0 3b 00 f9  	str	x0, [sp, #112]
    3838: 2f 00 00 14  	b	0x38f4 <.text+0x28f4>
    383c: 00 00 00 b0  	adrp	x0, 0x4000 <.text+0x2840>
    3840: 00 20 31 91  	add	x0, x0, #3144
    3844: e0 9f 00 f9  	str	x0, [sp, #312]
    3848: e1 3b 40 f9  	ldr	x1, [sp, #112]
    384c: e0 b3 40 f9  	ldr	x0, [sp, #352]
    3850: 20 00 00 8b  	add	x0, x1, x0
    3854: e0 3b 00 f9  	str	x0, [sp, #112]
    3858: e0 3b 40 f9  	ldr	x0, [sp, #112]
    385c: 00 00 40 39  	ldrb	w0, [x0]
    3860: e1 03 00 2a  	mov	w1, w0
    3864: e0 b3 40 f9  	ldr	x0, [sp, #352]
    3868: 1f 04 00 f1  	cmp	x0, #1
    386c: c0 00 00 54  	b.eq	0x3884 <.text+0x2884>
    3870: e0 3b 40 f9  	ldr	x0, [sp, #112]
    3874: 00 04 00 91  	add	x0, x0, #1
    3878: 00 00 40 39  	ldrb	w0, [x0]
    387c: 00 5c 18 53  	lsl	w0, w0, #8
    3880: 02 00 00 14  	b	0x3888 <.text+0x2888>
    3884: 00 00 80 52  	mov	w0, #0
    3888: 00 00 01 2a  	orr	w0, w0, w1
    388c: 01 7c 40 93  	sxtw	x1, w0
    3890: e0 af 40 f9  	ldr	x0, [sp, #344]
    3894: 20 00 00 8a  	and	x0, x1, x0
    3898: e0 4f 00 f9  	str	x0, [sp, #152]
    389c: e0 4f 40 f9  	ldr	x0, [sp, #152]
    38a0: 1f 34 00 f1  	cmp	x0, #13
    38a4: 60 02 00 54  	b.eq	0x38f0 <.text+0x28f0>
    38a8: e0 b3 40 f9  	ldr	x0, [sp, #352]
    38ac: e0 03 00 cb  	neg	x0, x0
    38b0: e1 3b 40 f9  	ldr	x1, [sp, #112]
    38b4: 20 00 00 8b  	add	x0, x1, x0
    38b8: e0 3b 00 f9  	str	x0, [sp, #112]
    38bc: 0d 00 00 14  	b	0x38f0 <.text+0x28f0>
    38c0: e0 63 02 91  	add	x0, sp, #152
    38c4: e0 9f 00 f9  	str	x0, [sp, #312]
    38c8: e0 3f 40 f9  	ldr	x0, [sp, #120]
    38cc: 00 00 76 b2  	orr	x0, x0, #0x400
    38d0: e0 3f 00 f9  	str	x0, [sp, #120]
    38d4: 08 00 00 14  	b	0x38f4 <.text+0x28f4>
    38d8: 1f 20 03 d5  	nop
    38dc: 54 00 00 14  	b	0x3a2c <.text+0x2a2c>
    38e0: 1f 20 03 d5  	nop
    38e4: 52 00 00 14  	b	0x3a2c <.text+0x2a2c>
    38e8: 1f 20 03 d5  	nop
    38ec: 50 00 00 14  	b	0x3a2c <.text+0x2a2c>
    38f0: 1f 20 03 d5  	nop
    38f4: 4e 00 00 14  	b	0x3a2c <.text+0x2a2c>
    38f8: e1 3b 40 f9  	ldr	x1, [sp, #112]
    38fc: e0 b3 40 f9  	ldr	x0, [sp, #352]
    3900: 20 00 00 8b  	add	x0, x1, x0
    3904: e0 3b 00 f9  	str	x0, [sp, #112]
    3908: e0 3b 40 f9  	ldr	x0, [sp, #112]
    390c: 00 00 40 39  	ldrb	w0, [x0]
    3910: e1 03 00 2a  	mov	w1, w0
    3914: e0 b3 40 f9  	ldr	x0, [sp, #352]
    3918: 1f 04 00 f1  	cmp	x0, #1
    391c: c0 00 00 54  	b.eq	0x3934 <.text+0x2934>
    3920: e0 3b 40 f9  	ldr	x0, [sp, #112]
    3924: 00 04 00 91  	add	x0, x0, #1
    3928: 00 00 40 39  	ldrb	w0, [x0]
    392c: 00 5c 18 53  	lsl	w0, w0, #8
    3930: 02 00 00 14  	b	0x3938 <.text+0x2938>
    3934: 00 00 80 52  	mov	w0, #0
    3938: 00 00 01 2a  	orr	w0, w0, w1
    393c: 01 7c 40 93  	sxtw	x1, w0
    3940: e0 af 40 f9  	ldr	x0, [sp, #344]
    3944: 20 00 00 8a  	and	x0, x1, x0
    3948: e0 4f 00 f9  	str	x0, [sp, #152]
    394c: e0 4f 40 f9  	ldr	x0, [sp, #152]
    3950: 1f 28 00 f1  	cmp	x0, #10
    3954: a1 00 00 54  	b.ne	0x3968 <.text+0x2968>
    3958: 00 00 00 b0  	adrp	x0, 0x4000 <.text+0x295c>
    395c: 00 20 31 91  	add	x0, x0, #3144
    3960: e0 9f 00 f9  	str	x0, [sp, #312]
    3964: 32 00 00 14  	b	0x3a2c <.text+0x2a2c>
    3968: 00 00 00 b0  	adrp	x0, 0x4000 <.text+0x296c>
    396c: 00 40 31 91  	add	x0, x0, #3152
    3970: e0 9f 00 f9  	str	x0, [sp, #312]
    3974: e0 b3 40 f9  	ldr	x0, [sp, #352]
    3978: e0 03 00 cb  	neg	x0, x0
    397c: e1 3b 40 f9  	ldr	x1, [sp, #112]
    3980: 20 00 00 8b  	add	x0, x1, x0
    3984: e0 3b 00 f9  	str	x0, [sp, #112]
    3988: 29 00 00 14  	b	0x3a2c <.text+0x2a2c>
    398c: 00 00 00 b0  	adrp	x0, 0x4000 <.text+0x2990>
    3990: 00 20 31 91  	add	x0, x0, #3144
    3994: e0 9f 00 f9  	str	x0, [sp, #312]
    3998: e1 3b 40 f9  	ldr	x1, [sp, #112]
    399c: e0 b3 40 f9  	ldr	x0, [sp, #352]
    39a0: 20 00 00 8b  	add	x0, x1, x0
    39a4: e0 3b 00 f9  	str	x0, [sp, #112]
    39a8: e0 3b 40 f9  	ldr	x0, [sp, #112]
    39ac: 00 00 40 39  	ldrb	w0, [x0]
    39b0: e1 03 00 2a  	mov	w1, w0
    39b4: e0 b3 40 f9  	ldr	x0, [sp, #352]
    39b8: 1f 04 00 f1  	cmp	x0, #1
    39bc: c0 00 00 54  	b.eq	0x39d4 <.text+0x29d4>
    39c0: e0 3b 40 f9  	ldr	x0, [sp, #112]
    39c4: 00 04 00 91  	add	x0, x0, #1
    39c8: 00 00 40 39  	ldrb	w0, [x0]
    39cc: 00 5c 18 53  	lsl	w0, w0, #8
    39d0: 02 00 00 14  	b	0x39d8 <.text+0x29d8>
    39d4: 00 00 80 52  	mov	w0, #0
    39d8: 00 00 01 2a  	orr	w0, w0, w1
    39dc: 01 7c 40 93  	sxtw	x1, w0
    39e0: e0 af 40 f9  	ldr	x0, [sp, #344]
    39e4: 20 00 00 8a  	and	x0, x1, x0
    39e8: e0 4f 00 f9  	str	x0, [sp, #152]
    39ec: e0 4f 40 f9  	ldr	x0, [sp, #152]
    39f0: 1f 34 00 f1  	cmp	x0, #13
    39f4: a0 01 00 54  	b.eq	0x3a28 <.text+0x2a28>
    39f8: e0 b3 40 f9  	ldr	x0, [sp, #352]
    39fc: e0 03 00 cb  	neg	x0, x0
    3a00: e1 3b 40 f9  	ldr	x1, [sp, #112]
    3a04: 20 00 00 8b  	add	x0, x1, x0
    3a08: e0 3b 00 f9  	str	x0, [sp, #112]
    3a0c: 07 00 00 14  	b	0x3a28 <.text+0x2a28>
    3a10: e0 63 02 91  	add	x0, sp, #152
    3a14: e0 9f 00 f9  	str	x0, [sp, #312]
    3a18: e0 3f 40 f9  	ldr	x0, [sp, #120]
    3a1c: 00 00 76 b2  	orr	x0, x0, #0x400
    3a20: e0 3f 00 f9  	str	x0, [sp, #120]
    3a24: 02 00 00 14  	b	0x3a2c <.text+0x2a2c>
    3a28: 1f 20 03 d5  	nop
    3a2c: e0 3f 40 f9  	ldr	x0, [sp, #120]
    3a30: 00 00 76 92  	and	x0, x0, #0x400
    3a34: 1f 00 00 f1  	cmp	x0, #0
    3a38: c0 00 00 54  	b.eq	0x3a50 <.text+0x2a50>
    3a3c: e0 ff 9f d2  	mov	x0, #65535
    3a40: e0 8f 00 f9  	str	x0, [sp, #280]
    3a44: 40 00 80 d2  	mov	x0, #2
    3a48: e0 8b 00 f9  	str	x0, [sp, #272]
    3a4c: 05 00 00 14  	b	0x3a60 <.text+0x2a60>
    3a50: e0 1f 80 d2  	mov	x0, #255
    3a54: e0 8f 00 f9  	str	x0, [sp, #280]
    3a58: 20 00 80 d2  	mov	x0, #1
    3a5c: e0 8b 00 f9  	str	x0, [sp, #272]
    3a60: e0 3f 40 f9  	ldr	x0, [sp, #120]
    3a64: 00 00 74 92  	and	x0, x0, #0x1000
    3a68: 1f 00 00 f1  	cmp	x0, #0
    3a6c: a0 00 00 54  	b.eq	0x3a80 <.text+0x2a80>
    3a70: e0 8b 40 f9  	ldr	x0, [sp, #272]
    3a74: e0 03 00 cb  	neg	x0, x0
    3a78: e0 8b 00 f9  	str	x0, [sp, #272]
    3a7c: 3b 00 00 14  	b	0x3b68 <.text+0x2b68>
    3a80: ff 93 00 f9  	str	xzr, [sp, #288]
    3a84: 1b 00 00 14  	b	0x3af0 <.text+0x2af0>
    3a88: e1 8b 40 f9  	ldr	x1, [sp, #272]
    3a8c: e0 93 40 f9  	ldr	x0, [sp, #288]
    3a90: 20 7c 00 9b  	mul	x0, x1, x0
    3a94: e1 9f 40 f9  	ldr	x1, [sp, #312]
    3a98: 20 00 00 8b  	add	x0, x1, x0
    3a9c: 00 00 40 39  	ldrb	w0, [x0]
    3aa0: e2 03 00 2a  	mov	w2, w0
    3aa4: e1 8b 40 f9  	ldr	x1, [sp, #272]
    3aa8: e0 93 40 f9  	ldr	x0, [sp, #288]
    3aac: 20 7c 00 9b  	mul	x0, x1, x0
    3ab0: 00 04 00 91  	add	x0, x0, #1
    3ab4: e1 9f 40 f9  	ldr	x1, [sp, #312]
    3ab8: 20 00 00 8b  	add	x0, x1, x0
    3abc: 00 00 40 39  	ldrb	w0, [x0]
    3ac0: 00 5c 18 53  	lsl	w0, w0, #8
    3ac4: 40 00 00 2a  	orr	w0, w2, w0
    3ac8: 00 7c 40 93  	sxtw	x0, w0
    3acc: e1 8f 40 f9  	ldr	x1, [sp, #280]
    3ad0: 20 00 00 8a  	and	x0, x1, x0
    3ad4: e0 67 00 f9  	str	x0, [sp, #200]
    3ad8: e0 67 40 f9  	ldr	x0, [sp, #200]
    3adc: 1f 00 00 f1  	cmp	x0, #0
    3ae0: 20 04 00 54  	b.eq	0x3b64 <.text+0x2b64>
    3ae4: e0 93 40 f9  	ldr	x0, [sp, #288]
    3ae8: 00 04 00 91  	add	x0, x0, #1
    3aec: e0 93 00 f9  	str	x0, [sp, #288]
    3af0: e1 8b 40 f9  	ldr	x1, [sp, #272]
    3af4: e0 93 40 f9  	ldr	x0, [sp, #288]
    3af8: 20 7c 00 9b  	mul	x0, x1, x0
    3afc: e1 9f 40 f9  	ldr	x1, [sp, #312]
    3b00: 20 00 00 8b  	add	x0, x1, x0
    3b04: 00 00 40 39  	ldrb	w0, [x0]
    3b08: 1f 00 00 71  	cmp	w0, #0
    3b0c: a1 01 00 54  	b.ne	0x3b40 <.text+0x2b40>
    3b10: e0 8b 40 f9  	ldr	x0, [sp, #272]
    3b14: 1f 04 00 f1  	cmp	x0, #1
    3b18: 8d 02 00 54  	b.le	0x3b68 <.text+0x2b68>
    3b1c: e1 8b 40 f9  	ldr	x1, [sp, #272]
    3b20: e0 93 40 f9  	ldr	x0, [sp, #288]
    3b24: 20 7c 00 9b  	mul	x0, x1, x0
    3b28: 00 04 00 91  	add	x0, x0, #1
    3b2c: e1 9f 40 f9  	ldr	x1, [sp, #312]
    3b30: 20 00 00 8b  	add	x0, x1, x0
    3b34: 00 00 40 39  	ldrb	w0, [x0]
    3b38: 1f 00 00 71  	cmp	w0, #0
    3b3c: 60 01 00 54  	b.eq	0x3b68 <.text+0x2b68>
    3b40: e1 93 40 f9  	ldr	x1, [sp, #288]
    3b44: e0 a7 40 f9  	ldr	x0, [sp, #328]
    3b48: 3f 00 00 eb  	cmp	x1, x0
    3b4c: e3 f9 ff 54  	b.lo	0x3a88 <.text+0x2a88>
    3b50: e0 3f 40 f9  	ldr	x0, [sp, #120]
    3b54: 00 00 75 92  	and	x0, x0, #0x800
    3b58: 1f 00 00 f1  	cmp	x0, #0
    3b5c: 60 f9 ff 54  	b.eq	0x3a88 <.text+0x2a88>
    3b60: 02 00 00 14  	b	0x3b68 <.text+0x2b68>
    3b64: 1f 20 03 d5  	nop
    3b68: e1 a7 40 f9  	ldr	x1, [sp, #328]
    3b6c: e0 93 40 f9  	ldr	x0, [sp, #288]
    3b70: 3f 00 00 eb  	cmp	x1, x0
    3b74: 62 00 00 54  	b.hs	0x3b80 <.text+0x2b80>
    3b78: e0 93 40 f9  	ldr	x0, [sp, #288]
    3b7c: e0 a7 00 f9  	str	x0, [sp, #328]
    3b80: e1 3f 40 f9  	ldr	x1, [sp, #120]
    3b84: 20 40 80 d2  	mov	x0, #513
    3b88: 20 00 00 8a  	and	x0, x1, x0
    3b8c: 1f 00 08 f1  	cmp	x0, #512
    3b90: 81 03 00 54  	b.ne	0x3c00 <.text+0x2c00>
    3b94: e1 ab 40 f9  	ldr	x1, [sp, #336]
    3b98: e0 a7 40 f9  	ldr	x0, [sp, #328]
    3b9c: 21 00 00 cb  	sub	x1, x1, x0
    3ba0: e0 6f 41 b9  	ldr	w0, [sp, #364]
    3ba4: 20 7c 00 9b  	mul	x0, x1, x0
    3ba8: e1 6f 40 f9  	ldr	x1, [sp, #216]
    3bac: 20 00 00 8b  	add	x0, x1, x0
    3bb0: e0 6f 00 f9  	str	x0, [sp, #216]
    3bb4: e0 3f 40 f9  	ldr	x0, [sp, #120]
    3bb8: 00 00 73 92  	and	x0, x0, #0x2000
    3bbc: 1f 00 00 f1  	cmp	x0, #0
    3bc0: 01 02 00 54  	b.ne	0x3c00 <.text+0x2c00>
    3bc4: e0 47 40 f9  	ldr	x0, [sp, #136]
    3bc8: 1f 00 00 f1  	cmp	x0, #0
    3bcc: a0 01 00 54  	b.eq	0x3c00 <.text+0x2c00>
    3bd0: e1 ab 40 f9  	ldr	x1, [sp, #336]
    3bd4: e0 a7 40 f9  	ldr	x0, [sp, #328]
    3bd8: 20 00 00 cb  	sub	x0, x1, x0
    3bdc: e1 03 00 aa  	mov	x1, x0
    3be0: e0 6f 41 b9  	ldr	w0, [sp, #364]
    3be4: e4 03 00 aa  	mov	x4, x0
    3be8: 03 04 80 d2  	mov	x3, #32
    3bec: e2 03 01 aa  	mov	x2, x1
    3bf0: e1 bb 40 f9  	ldr	x1, [sp, #368]
    3bf4: e0 47 40 f9  	ldr	x0, [sp, #136]
    3bf8: 1f fa ff 97  	bl	0x2474 <.text+0x1474>
    3bfc: e0 47 00 f9  	str	x0, [sp, #136]
    3c00: e0 fb 43 39  	ldrb	w0, [sp, #254]
    3c04: 1f 00 00 71  	cmp	w0, #0
    3c08: 80 06 00 54  	b.eq	0x3cd8 <.text+0x2cd8>
    3c0c: e0 ff 43 39  	ldrb	w0, [sp, #255]
    3c10: 1f 00 00 71  	cmp	w0, #0
    3c14: a0 02 00 54  	b.eq	0x3c68 <.text+0x2c68>
    3c18: e0 6f 41 b9  	ldr	w0, [sp, #364]
    3c1c: e1 6f 40 f9  	ldr	x1, [sp, #216]
    3c20: 20 00 00 8b  	add	x0, x1, x0
    3c24: e0 6f 00 f9  	str	x0, [sp, #216]
    3c28: e0 3f 40 f9  	ldr	x0, [sp, #120]
    3c2c: 00 00 73 92  	and	x0, x0, #0x2000
    3c30: 1f 00 00 f1  	cmp	x0, #0
    3c34: a1 01 00 54  	b.ne	0x3c68 <.text+0x2c68>
    3c38: e0 47 40 f9  	ldr	x0, [sp, #136]
    3c3c: 1f 00 00 f1  	cmp	x0, #0
    3c40: 40 01 00 54  	b.eq	0x3c68 <.text+0x2c68>
    3c44: e0 ff 43 39  	ldrb	w0, [sp, #255]
    3c48: e1 6f 41 b9  	ldr	w1, [sp, #364]
    3c4c: e4 03 01 aa  	mov	x4, x1
    3c50: e3 03 00 aa  	mov	x3, x0
    3c54: 22 00 80 d2  	mov	x2, #1
    3c58: e1 bb 40 f9  	ldr	x1, [sp, #368]
    3c5c: e0 47 40 f9  	ldr	x0, [sp, #136]
    3c60: 05 fa ff 97  	bl	0x2474 <.text+0x1474>
    3c64: e0 47 00 f9  	str	x0, [sp, #136]
    3c68: e1 a7 40 f9  	ldr	x1, [sp, #328]
    3c6c: e0 93 40 f9  	ldr	x0, [sp, #288]
    3c70: 21 00 00 cb  	sub	x1, x1, x0
    3c74: e0 6f 41 b9  	ldr	w0, [sp, #364]
    3c78: 20 7c 00 9b  	mul	x0, x1, x0
    3c7c: e1 6f 40 f9  	ldr	x1, [sp, #216]
    3c80: 20 00 00 8b  	add	x0, x1, x0
    3c84: e0 6f 00 f9  	str	x0, [sp, #216]
    3c88: e0 3f 40 f9  	ldr	x0, [sp, #120]
    3c8c: 00 00 73 92  	and	x0, x0, #0x2000
    3c90: 1f 00 00 f1  	cmp	x0, #0
    3c94: 61 08 00 54  	b.ne	0x3da0 <.text+0x2da0>
    3c98: e0 47 40 f9  	ldr	x0, [sp, #136]
    3c9c: 1f 00 00 f1  	cmp	x0, #0
    3ca0: 00 08 00 54  	b.eq	0x3da0 <.text+0x2da0>
    3ca4: e1 a7 40 f9  	ldr	x1, [sp, #328]
    3ca8: e0 93 40 f9  	ldr	x0, [sp, #288]
    3cac: 20 00 00 cb  	sub	x0, x1, x0
    3cb0: e1 03 00 aa  	mov	x1, x0
    3cb4: e0 6f 41 b9  	ldr	w0, [sp, #364]
    3cb8: e4 03 00 aa  	mov	x4, x0
    3cbc: 03 06 80 d2  	mov	x3, #48
    3cc0: e2 03 01 aa  	mov	x2, x1
    3cc4: e1 bb 40 f9  	ldr	x1, [sp, #368]
    3cc8: e0 47 40 f9  	ldr	x0, [sp, #136]
    3ccc: ea f9 ff 97  	bl	0x2474 <.text+0x1474>
    3cd0: e0 47 00 f9  	str	x0, [sp, #136]
    3cd4: 33 00 00 14  	b	0x3da0 <.text+0x2da0>
    3cd8: e1 a7 40 f9  	ldr	x1, [sp, #328]
    3cdc: e0 93 40 f9  	ldr	x0, [sp, #288]
    3ce0: 21 00 00 cb  	sub	x1, x1, x0
    3ce4: e0 6f 41 b9  	ldr	w0, [sp, #364]
    3ce8: 20 7c 00 9b  	mul	x0, x1, x0
    3cec: e1 6f 40 f9  	ldr	x1, [sp, #216]
    3cf0: 20 00 00 8b  	add	x0, x1, x0
    3cf4: e0 6f 00 f9  	str	x0, [sp, #216]
    3cf8: e0 3f 40 f9  	ldr	x0, [sp, #120]
    3cfc: 00 00 73 92  	and	x0, x0, #0x2000
    3d00: 1f 00 00 f1  	cmp	x0, #0
    3d04: 01 02 00 54  	b.ne	0x3d44 <.text+0x2d44>
    3d08: e0 47 40 f9  	ldr	x0, [sp, #136]
    3d0c: 1f 00 00 f1  	cmp	x0, #0
    3d10: a0 01 00 54  	b.eq	0x3d44 <.text+0x2d44>
    3d14: e1 a7 40 f9  	ldr	x1, [sp, #328]
    3d18: e0 93 40 f9  	ldr	x0, [sp, #288]
    3d1c: 20 00 00 cb  	sub	x0, x1, x0
    3d20: e1 03 00 aa  	mov	x1, x0
    3d24: e0 6f 41 b9  	ldr	w0, [sp, #364]
    3d28: e4 03 00 aa  	mov	x4, x0
    3d2c: 03 04 80 d2  	mov	x3, #32
    3d30: e2 03 01 aa  	mov	x2, x1
    3d34: e1 bb 40 f9  	ldr	x1, [sp, #368]
    3d38: e0 47 40 f9  	ldr	x0, [sp, #136]
    3d3c: ce f9 ff 97  	bl	0x2474 <.text+0x1474>
    3d40: e0 47 00 f9  	str	x0, [sp, #136]
    3d44: e0 ff 43 39  	ldrb	w0, [sp, #255]
    3d48: 1f 00 00 71  	cmp	w0, #0
    3d4c: a0 02 00 54  	b.eq	0x3da0 <.text+0x2da0>
    3d50: e0 6f 41 b9  	ldr	w0, [sp, #364]
    3d54: e1 6f 40 f9  	ldr	x1, [sp, #216]
    3d58: 20 00 00 8b  	add	x0, x1, x0
    3d5c: e0 6f 00 f9  	str	x0, [sp, #216]
    3d60: e0 3f 40 f9  	ldr	x0, [sp, #120]
    3d64: 00 00 73 92  	and	x0, x0, #0x2000
    3d68: 1f 00 00 f1  	cmp	x0, #0
    3d6c: a1 01 00 54  	b.ne	0x3da0 <.text+0x2da0>
    3d70: e0 47 40 f9  	ldr	x0, [sp, #136]
    3d74: 1f 00 00 f1  	cmp	x0, #0
    3d78: 40 01 00 54  	b.eq	0x3da0 <.text+0x2da0>
    3d7c: e0 ff 43 39  	ldrb	w0, [sp, #255]
    3d80: e1 6f 41 b9  	ldr	w1, [sp, #364]
    3d84: e4 03 01 aa  	mov	x4, x1
    3d88: e3 03 00 aa  	mov	x3, x0
    3d8c: 22 00 80 d2  	mov	x2, #1
    3d90: e1 bb 40 f9  	ldr	x1, [sp, #368]
    3d94: e0 47 40 f9  	ldr	x0, [sp, #136]
    3d98: b7 f9 ff 97  	bl	0x2474 <.text+0x1474>
    3d9c: e0 47 00 f9  	str	x0, [sp, #136]
    3da0: ff 83 00 f9  	str	xzr, [sp, #256]
    3da4: e0 ff 43 39  	ldrb	w0, [sp, #255]
    3da8: 1f 00 00 71  	cmp	w0, #0
    3dac: e0 09 00 54  	b.eq	0x3ee8 <.text+0x2ee8>
    3db0: e0 83 40 f9  	ldr	x0, [sp, #256]
    3db4: 00 04 00 91  	add	x0, x0, #1
    3db8: e0 83 00 f9  	str	x0, [sp, #256]
    3dbc: 4b 00 00 14  	b	0x3ee8 <.text+0x2ee8>
    3dc0: e0 9f 40 f9  	ldr	x0, [sp, #312]
    3dc4: 00 00 40 39  	ldrb	w0, [x0]
    3dc8: e1 03 00 2a  	mov	w1, w0
    3dcc: e0 9f 40 f9  	ldr	x0, [sp, #312]
    3dd0: 00 04 00 91  	add	x0, x0, #1
    3dd4: 00 00 40 39  	ldrb	w0, [x0]
    3dd8: 00 5c 18 53  	lsl	w0, w0, #8
    3ddc: 20 00 00 2a  	orr	w0, w1, w0
    3de0: 00 7c 40 93  	sxtw	x0, w0
    3de4: e1 8f 40 f9  	ldr	x1, [sp, #280]
    3de8: 20 00 00 8a  	and	x0, x1, x0
    3dec: e0 67 00 f9  	str	x0, [sp, #200]
    3df0: e0 6f 41 b9  	ldr	w0, [sp, #364]
    3df4: e1 6f 40 f9  	ldr	x1, [sp, #216]
    3df8: 20 00 00 8b  	add	x0, x1, x0
    3dfc: e0 6f 00 f9  	str	x0, [sp, #216]
    3e00: e0 3f 40 f9  	ldr	x0, [sp, #120]
    3e04: 00 00 73 92  	and	x0, x0, #0x2000
    3e08: 1f 00 00 f1  	cmp	x0, #0
    3e0c: 81 01 00 54  	b.ne	0x3e3c <.text+0x2e3c>
    3e10: e0 47 40 f9  	ldr	x0, [sp, #136]
    3e14: 1f 00 00 f1  	cmp	x0, #0
    3e18: 20 01 00 54  	b.eq	0x3e3c <.text+0x2e3c>
    3e1c: e0 6f 41 b9  	ldr	w0, [sp, #364]
    3e20: e4 03 00 aa  	mov	x4, x0
    3e24: e3 67 40 f9  	ldr	x3, [sp, #200]
    3e28: 22 00 80 d2  	mov	x2, #1
    3e2c: e1 bb 40 f9  	ldr	x1, [sp, #368]
    3e30: e0 47 40 f9  	ldr	x0, [sp, #136]
    3e34: 90 f9 ff 97  	bl	0x2474 <.text+0x1474>
    3e38: e0 47 00 f9  	str	x0, [sp, #136]
    3e3c: e0 8b 40 f9  	ldr	x0, [sp, #272]
    3e40: e1 9f 40 f9  	ldr	x1, [sp, #312]
    3e44: 20 00 00 8b  	add	x0, x1, x0
    3e48: e0 9f 00 f9  	str	x0, [sp, #312]
    3e4c: e0 83 40 f9  	ldr	x0, [sp, #256]
    3e50: 00 04 00 91  	add	x0, x0, #1
    3e54: e0 83 00 f9  	str	x0, [sp, #256]
    3e58: e0 f7 43 39  	ldrb	w0, [sp, #253]
    3e5c: 1f 00 00 71  	cmp	w0, #0
    3e60: 40 04 00 54  	b.eq	0x3ee8 <.text+0x2ee8>
    3e64: e0 7b 40 f9  	ldr	x0, [sp, #240]
    3e68: 00 04 00 91  	add	x0, x0, #1
    3e6c: e0 7b 00 f9  	str	x0, [sp, #240]
    3e70: e0 7b 40 f9  	ldr	x0, [sp, #240]
    3e74: 1f 0c 00 f1  	cmp	x0, #3
    3e78: 81 03 00 54  	b.ne	0x3ee8 <.text+0x2ee8>
    3e7c: ff 7b 00 f9  	str	xzr, [sp, #240]
    3e80: e0 83 40 f9  	ldr	x0, [sp, #256]
    3e84: 00 04 00 91  	add	x0, x0, #1
    3e88: e0 83 00 f9  	str	x0, [sp, #256]
    3e8c: e1 83 40 f9  	ldr	x1, [sp, #256]
    3e90: e0 93 40 f9  	ldr	x0, [sp, #288]
    3e94: 3f 00 00 eb  	cmp	x1, x0
    3e98: 82 02 00 54  	b.hs	0x3ee8 <.text+0x2ee8>
    3e9c: e0 6f 41 b9  	ldr	w0, [sp, #364]
    3ea0: e1 6f 40 f9  	ldr	x1, [sp, #216]
    3ea4: 20 00 00 8b  	add	x0, x1, x0
    3ea8: e0 6f 00 f9  	str	x0, [sp, #216]
    3eac: e0 3f 40 f9  	ldr	x0, [sp, #120]
    3eb0: 00 00 73 92  	and	x0, x0, #0x2000
    3eb4: 1f 00 00 f1  	cmp	x0, #0
    3eb8: 81 01 00 54  	b.ne	0x3ee8 <.text+0x2ee8>
    3ebc: e0 47 40 f9  	ldr	x0, [sp, #136]
    3ec0: 1f 00 00 f1  	cmp	x0, #0
    3ec4: 20 01 00 54  	b.eq	0x3ee8 <.text+0x2ee8>
    3ec8: e0 6f 41 b9  	ldr	w0, [sp, #364]
    3ecc: e4 03 00 aa  	mov	x4, x0
    3ed0: 83 05 80 d2  	mov	x3, #44
    3ed4: 22 00 80 d2  	mov	x2, #1
    3ed8: e1 bb 40 f9  	ldr	x1, [sp, #368]
    3edc: e0 47 40 f9  	ldr	x0, [sp, #136]
    3ee0: 65 f9 ff 97  	bl	0x2474 <.text+0x1474>
    3ee4: e0 47 00 f9  	str	x0, [sp, #136]
    3ee8: e1 83 40 f9  	ldr	x1, [sp, #256]
    3eec: e0 93 40 f9  	ldr	x0, [sp, #288]
    3ef0: 3f 00 00 eb  	cmp	x1, x0
    3ef4: a2 01 00 54  	b.hs	0x3f28 <.text+0x2f28>
    3ef8: e0 9f 40 f9  	ldr	x0, [sp, #312]
    3efc: 00 00 40 39  	ldrb	w0, [x0]
    3f00: 1f 00 00 71  	cmp	w0, #0
    3f04: e1 f5 ff 54  	b.ne	0x3dc0 <.text+0x2dc0>
    3f08: e0 8b 40 f9  	ldr	x0, [sp, #272]
    3f0c: 1f 04 00 f1  	cmp	x0, #1
    3f10: cd 00 00 54  	b.le	0x3f28 <.text+0x2f28>
    3f14: e0 9f 40 f9  	ldr	x0, [sp, #312]
    3f18: 00 04 00 91  	add	x0, x0, #1
    3f1c: 00 00 40 39  	ldrb	w0, [x0]
    3f20: 1f 00 00 71  	cmp	w0, #0
    3f24: e1 f4 ff 54  	b.ne	0x3dc0 <.text+0x2dc0>
    3f28: e1 3f 40 f9  	ldr	x1, [sp, #120]
    3f2c: 20 40 80 d2  	mov	x0, #513
    3f30: 20 00 00 8a  	and	x0, x1, x0
    3f34: 1f 04 08 f1  	cmp	x0, #513
    3f38: 81 03 00 54  	b.ne	0x3fa8 <.text+0x2fa8>
    3f3c: e1 ab 40 f9  	ldr	x1, [sp, #336]
    3f40: e0 a7 40 f9  	ldr	x0, [sp, #328]
    3f44: 21 00 00 cb  	sub	x1, x1, x0
    3f48: e0 6f 41 b9  	ldr	w0, [sp, #364]
    3f4c: 20 7c 00 9b  	mul	x0, x1, x0
    3f50: e1 6f 40 f9  	ldr	x1, [sp, #216]
    3f54: 20 00 00 8b  	add	x0, x1, x0
    3f58: e0 6f 00 f9  	str	x0, [sp, #216]
    3f5c: e0 3f 40 f9  	ldr	x0, [sp, #120]
    3f60: 00 00 73 92  	and	x0, x0, #0x2000
    3f64: 1f 00 00 f1  	cmp	x0, #0
    3f68: 01 02 00 54  	b.ne	0x3fa8 <.text+0x2fa8>
    3f6c: e0 47 40 f9  	ldr	x0, [sp, #136]
    3f70: 1f 00 00 f1  	cmp	x0, #0
    3f74: a0 01 00 54  	b.eq	0x3fa8 <.text+0x2fa8>
    3f78: e1 ab 40 f9  	ldr	x1, [sp, #336]
    3f7c: e0 a7 40 f9  	ldr	x0, [sp, #328]
    3f80: 20 00 00 cb  	sub	x0, x1, x0
    3f84: e1 03 00 aa  	mov	x1, x0
    3f88: e0 6f 41 b9  	ldr	w0, [sp, #364]
    3f8c: e4 03 00 aa  	mov	x4, x0
    3f90: 03 04 80 d2  	mov	x3, #32
    3f94: e2 03 01 aa  	mov	x2, x1
    3f98: e1 bb 40 f9  	ldr	x1, [sp, #368]
    3f9c: e0 47 40 f9  	ldr	x0, [sp, #136]
    3fa0: 35 f9 ff 97  	bl	0x2474 <.text+0x1474>
    3fa4: e0 47 00 f9  	str	x0, [sp, #136]
    3fa8: e1 3b 40 f9  	ldr	x1, [sp, #112]
    3fac: e0 b3 40 f9  	ldr	x0, [sp, #352]
    3fb0: 20 00 00 8b  	add	x0, x1, x0
    3fb4: e0 3b 00 f9  	str	x0, [sp, #112]
    3fb8: e0 3b 40 f9  	ldr	x0, [sp, #112]
    3fbc: 00 00 40 39  	ldrb	w0, [x0]
    3fc0: e1 03 00 2a  	mov	w1, w0
    3fc4: e0 b3 40 f9  	ldr	x0, [sp, #352]
    3fc8: 1f 04 00 f1  	cmp	x0, #1
    3fcc: c0 00 00 54  	b.eq	0x3fe4 <.text+0x2fe4>
    3fd0: e0 3b 40 f9  	ldr	x0, [sp, #112]
    3fd4: 00 04 00 91  	add	x0, x0, #1
    3fd8: 00 00 40 39  	ldrb	w0, [x0]
    3fdc: 00 5c 18 53  	lsl	w0, w0, #8
    3fe0: 02 00 00 14  	b	0x3fe8 <.text+0x2fe8>
    3fe4: 00 00 80 52  	mov	w0, #0
    3fe8: 00 00 01 2a  	orr	w0, w0, w1
    3fec: 01 7c 40 93  	sxtw	x1, w0
    3ff0: e0 af 40 f9  	ldr	x0, [sp, #344]
    3ff4: 20 00 00 8a  	and	x0, x1, x0
    3ff8: e0 4f 00 f9  	str	x0, [sp, #152]
    3ffc: e0 4f 40 f9  	ldr	x0, [sp, #152]
    4000: 1f 00 00 f1  	cmp	x0, #0
    4004: 21 50 ff 54  	b.ne	0x2a08 <.text+0x1a08>
    4008: 02 00 00 14  	b	0x4010 <.text+0x3010>
    400c: 1f 20 03 d5  	nop
    4010: e0 3f 40 f9  	ldr	x0, [sp, #120]
    4014: 00 00 73 92  	and	x0, x0, #0x2000
    4018: 1f 00 00 f1  	cmp	x0, #0
    401c: a0 00 00 54  	b.eq	0x4030 <.text+0x3030>
    4020: e0 6f 41 b9  	ldr	w0, [sp, #364]
    4024: e1 6f 40 f9  	ldr	x1, [sp, #216]
    4028: 20 08 c0 9a  	udiv	x0, x1, x0
    402c: 1d 00 00 14  	b	0x40a0 <.text+0x30a0>
    4030: 69 f6 ff 97  	bl	0x19d4 <.text+0x9d4>
    4034: 00 1c 00 12  	and	w0, w0, #0xff
    4038: 1f 00 00 71  	cmp	w0, #0
    403c: 40 01 00 54  	b.eq	0x4064 <.text+0x3064>
    4040: e0 47 40 f9  	ldr	x0, [sp, #136]
    4044: 1f 00 00 f1  	cmp	x0, #0
    4048: e1 00 00 54  	b.ne	0x4064 <.text+0x3064>
    404c: 00 00 00 90  	adrp	x0, 0x4000 <.text+0x304c>
    4050: 02 40 11 91  	add	x2, x0, #1104
    4054: 01 a0 80 d2  	mov	x1, #1280
    4058: 00 00 00 90  	adrp	x0, 0x4000 <.text+0x3058>
    405c: 00 c0 20 91  	add	x0, x0, #2096
    4060: 1c f6 ff 97  	bl	0x18d0 <.text+0x8d0>
    4064: e0 6f 41 b9  	ldr	w0, [sp, #364]
    4068: e1 bb 40 f9  	ldr	x1, [sp, #368]
    406c: 20 00 00 8b  	add	x0, x1, x0
    4070: e1 6f 41 b9  	ldr	w1, [sp, #364]
    4074: e4 03 01 aa  	mov	x4, x1
    4078: 03 00 80 d2  	mov	x3, #0
    407c: 22 00 80 d2  	mov	x2, #1
    4080: e1 03 00 aa  	mov	x1, x0
    4084: e0 47 40 f9  	ldr	x0, [sp, #136]
    4088: fb f8 ff 97  	bl	0x2474 <.text+0x1474>
    408c: e1 47 40 f9  	ldr	x1, [sp, #136]
    4090: e0 bf 40 f9  	ldr	x0, [sp, #376]
    4094: 21 00 00 cb  	sub	x1, x1, x0
    4098: e0 6f 41 b9  	ldr	w0, [sp, #364]
    409c: 20 0c c0 9a  	sdiv	x0, x1, x0
    40a0: f3 2b 40 f9  	ldr	x19, [sp, #80]
    40a4: fd 7b 44 a9  	ldp	x29, x30, [sp, #64]
    40a8: ff 03 06 91  	add	sp, sp, #384
    40ac: c0 03 5f d6  	ret
    40b0: fd 7b b6 a9  	stp	x29, x30, [sp, #-160]!
    40b4: fd 03 00 91  	mov	x29, sp
    40b8: e0 27 00 f9  	str	x0, [sp, #72]
    40bc: e1 23 00 f9  	str	x1, [sp, #64]
    40c0: e2 1f 00 f9  	str	x2, [sp, #56]
    40c4: e3 1b 00 f9  	str	x3, [sp, #48]
    40c8: e4 43 00 f9  	str	x4, [sp, #128]
    40cc: e5 47 00 f9  	str	x5, [sp, #136]
    40d0: e6 4b 00 f9  	str	x6, [sp, #144]
    40d4: e7 4f 00 f9  	str	x7, [sp, #152]
    40d8: e0 83 02 91  	add	x0, sp, #160
    40dc: e0 2f 00 f9  	str	x0, [sp, #88]
    40e0: e0 83 02 91  	add	x0, sp, #160
    40e4: e0 33 00 f9  	str	x0, [sp, #96]
    40e8: e0 03 02 91  	add	x0, sp, #128
    40ec: e0 37 00 f9  	str	x0, [sp, #104]
    40f0: e0 03 80 12  	mov	w0, #-32
    40f4: e0 73 00 b9  	str	w0, [sp, #112]
    40f8: ff 77 00 b9  	str	wzr, [sp, #116]
    40fc: e0 2f 40 f9  	ldr	x0, [sp, #88]
    4100: e0 0b 00 f9  	str	x0, [sp, #16]
    4104: e0 33 40 f9  	ldr	x0, [sp, #96]
    4108: e0 0f 00 f9  	str	x0, [sp, #24]
    410c: e0 37 40 f9  	ldr	x0, [sp, #104]
    4110: e0 13 00 f9  	str	x0, [sp, #32]
    4114: e0 3b 40 f9  	ldr	x0, [sp, #112]
    4118: e0 17 00 f9  	str	x0, [sp, #40]
    411c: e0 43 00 91  	add	x0, sp, #16
    4120: 05 00 80 d2  	mov	x5, #0
    4124: e4 03 00 aa  	mov	x4, x0
    4128: e3 1b 40 f9  	ldr	x3, [sp, #48]
    412c: e2 1f 40 f9  	ldr	x2, [sp, #56]
    4130: e1 23 40 f9  	ldr	x1, [sp, #64]
    4134: e0 27 40 f9  	ldr	x0, [sp, #72]
    4138: 15 f9 ff 97  	bl	0x258c <.text+0x158c>
    413c: e0 3f 00 f9  	str	x0, [sp, #120]
    4140: e0 3f 40 f9  	ldr	x0, [sp, #120]
    4144: fd 7b ca a8  	ldp	x29, x30, [sp], #160
    4148: c0 03 5f d6  	ret
    414c: fd 7b bd a9  	stp	x29, x30, [sp, #-48]!
    4150: fd 03 00 91  	mov	x29, sp
    4154: e0 1f 00 b9  	str	w0, [sp, #28]
    4158: e1 0b 00 f9  	str	x1, [sp, #16]
    415c: 00 00 00 d0  	adrp	x0, 0x6000 <.text+0x3164>
    4160: 00 c0 00 91  	add	x0, x0, #48
    4164: 00 00 40 f9  	ldr	x0, [x0]
    4168: 03 20 40 f9  	ldr	x3, [x0, #64]
    416c: e0 83 00 91  	add	x0, sp, #32
    4170: e2 03 00 aa  	mov	x2, x0
    4174: e1 0b 40 f9  	ldr	x1, [sp, #16]
    4178: e0 1f 40 b9  	ldr	w0, [sp, #28]
    417c: 60 00 3f d6  	blr	x3
    4180: e0 17 00 f9  	str	x0, [sp, #40]
    4184: e0 17 40 f9  	ldr	x0, [sp, #40]
    4188: 1f 00 00 f1  	cmp	x0, #0
    418c: 4a 00 00 54  	b.ge	0x4194 <.text+0x3194>
    4190: ff 13 00 f9  	str	xzr, [sp, #32]
    4194: e0 13 40 f9  	ldr	x0, [sp, #32]
    4198: fd 7b c3 a8  	ldp	x29, x30, [sp], #48
    419c: c0 03 5f d6  	ret
    41a0: fd 7b be a9  	stp	x29, x30, [sp, #-32]!
    41a4: fd 03 00 91  	mov	x29, sp
    41a8: e0 0f 00 f9  	str	x0, [sp, #24]
    41ac: e1 0f 40 f9  	ldr	x1, [sp, #24]
    41b0: 80 00 80 52  	mov	w0, #4
    41b4: e6 ff ff 97  	bl	0x414c <.text+0x314c>
    41b8: fd 7b c2 a8  	ldp	x29, x30, [sp], #32
    41bc: c0 03 5f d6  	ret
    41c0: fd 7b bd a9  	stp	x29, x30, [sp, #-48]!
    41c4: fd 03 00 91  	mov	x29, sp
    41c8: e0 0f 00 f9  	str	x0, [sp, #24]
    41cc: 00 00 00 d0  	adrp	x0, 0x6000 <.text+0x31d4>
    41d0: 00 c0 00 91  	add	x0, x0, #48
    41d4: 00 00 40 f9  	ldr	x0, [x0]
    41d8: 01 24 40 f9  	ldr	x1, [x0, #72]
    41dc: e0 0f 40 f9  	ldr	x0, [sp, #24]
    41e0: 20 00 3f d6  	blr	x1
    41e4: e0 17 00 f9  	str	x0, [sp, #40]
    41e8: fb f5 ff 97  	bl	0x19d4 <.text+0x9d4>
    41ec: 00 1c 00 12  	and	w0, w0, #0xff
    41f0: 1f 00 00 71  	cmp	w0, #0
    41f4: 00 03 00 54  	b.eq	0x4254 <.text+0x3254>
    41f8: e0 17 40 f9  	ldr	x0, [sp, #40]
    41fc: 1f 00 00 f1  	cmp	x0, #0
    4200: aa 02 00 54  	b.ge	0x4254 <.text+0x3254>
    4204: fc f5 ff 97  	bl	0x19f4 <.text+0x9f4>
    4208: 00 1c 00 12  	and	w0, w0, #0xff
    420c: 1f 00 00 71  	cmp	w0, #0
    4210: 60 01 00 54  	b.eq	0x423c <.text+0x323c>
    4214: 00 00 b0 d2  	mov	x0, #2147483648
    4218: ff f5 ff 97  	bl	0x1a14 <.text+0xa14>
    421c: 00 1c 00 12  	and	w0, w0, #0xff
    4220: 1f 00 00 71  	cmp	w0, #0
    4224: c0 00 00 54  	b.eq	0x423c <.text+0x323c>
    4228: e2 17 40 f9  	ldr	x2, [sp, #40]
    422c: 00 00 00 90  	adrp	x0, 0x4000 <.text+0x322c>
    4230: 01 20 0c 91  	add	x1, x0, #776
    4234: 00 00 b0 d2  	mov	x0, #2147483648
    4238: 1b f5 ff 97  	bl	0x16a4 <.text+0x6a4>
    423c: 00 00 00 90  	adrp	x0, 0x4000 <.text+0x323c>
    4240: 02 c0 0c 91  	add	x2, x0, #816
    4244: a1 66 80 d2  	mov	x1, #821
    4248: 00 00 00 90  	adrp	x0, 0x4000 <.text+0x3248>
    424c: 00 a0 31 91  	add	x0, x0, #3176
    4250: a0 f5 ff 97  	bl	0x18d0 <.text+0x8d0>
    4254: 1f 20 03 d5  	nop
    4258: fd 7b c3 a8  	ldp	x29, x30, [sp], #48
    425c: c0 03 5f d6  	ret
    4260: fd 7b bd a9  	stp	x29, x30, [sp, #-48]!
    4264: fd 03 00 91  	mov	x29, sp
    4268: e0 17 00 f9  	str	x0, [sp, #40]
    426c: e1 27 00 b9  	str	w1, [sp, #36]
    4270: e2 0f 00 f9  	str	x2, [sp, #24]
    4274: d8 f5 ff 97  	bl	0x19d4 <.text+0x9d4>
    4278: 00 1c 00 12  	and	w0, w0, #0xff
    427c: 1f 00 00 71  	cmp	w0, #0
    4280: 40 01 00 54  	b.eq	0x42a8 <.text+0x32a8>
    4284: e0 27 40 b9  	ldr	w0, [sp, #36]
    4288: 1f 00 00 71  	cmp	w0, #0
    428c: e1 00 00 54  	b.ne	0x42a8 <.text+0x32a8>
    4290: 00 00 00 90  	adrp	x0, 0x4000 <.text+0x3290>
    4294: 02 a0 18 91  	add	x2, x0, #1576
    4298: c1 04 80 d2  	mov	x1, #38
    429c: 00 00 00 90  	adrp	x0, 0x4000 <.text+0x329c>
    42a0: 00 20 33 91  	add	x0, x0, #3272
    42a4: 8b f5 ff 97  	bl	0x18d0 <.text+0x8d0>
    42a8: e2 0f 40 f9  	ldr	x2, [sp, #24]
    42ac: e1 27 40 b9  	ldr	w1, [sp, #36]
    42b0: e0 17 40 f9  	ldr	x0, [sp, #40]
    42b4: a9 f7 ff 97  	bl	0x2158 <.text+0x1158>
    42b8: fd 7b c3 a8  	ldp	x29, x30, [sp], #48
    42bc: c0 03 5f d6  	ret
    42c0: 1d 00 80 d2  	mov	x29, #0
    42c4: fe 03 00 aa  	mov	x30, x0
    42c8: 7f 00 00 91  	mov	sp, x3
    42cc: e0 03 01 aa  	mov	x0, x1
    42d0: e1 03 02 aa  	mov	x1, x2
    42d4: c0 03 5f d6  	ret
    42d8: 1f 20 03 d5  	nop
    42dc: 1f 20 03 d5  	nop
    42e0: 1f 20 03 d5  	nop
    42e4: 1f 20 03 d5  	nop
    42e8: 1f 20 03 d5  	nop
    42ec: c0 03 5f d6  	ret
    42f0: 61 7b 1b d4  	svc	#0xdbdb
    42f4: c0 03 5f d6  	ret
    42f8: 55 45 46 49  	<unknown>
    42fc: 53 65 6c 66  	<unknown>
    4300: 52 65 70 00  	<unknown>
    4304: 00 00 00 00  	udf	#0
    4308: 0a 41 53 53  	<unknown>
    430c: 45 52 54 5f  	<unknown>
    4310: 45 46 49 5f  	<unknown>
    4314: 45 52 52 4f  	<unknown>
    4318: 52 20 28 53  	<unknown>
    431c: 74 61 74 75  	<unknown>
    4320: 73 20 3d 20  	<unknown>
    4324: 25 72 29 0a  	bic	w5, w17, w9, lsl #28
		...
    4330: 21 28 28 28  	stnp	w1, w10, [x1, #-192]
    4334: 49 4e 54 4e  	<unknown>
    4338: 29 28 52 45  	<unknown>
    433c: 54 55 52 4e  	<unknown>
    4340: 5f 53 54 41  	<unknown>
    4344: 54 55 53 29  	ldp	w20, w21, [x10, #152]
    4348: 28 53 74 61  	<unknown>
    434c: 74 75 73 29  	ldp	w20, w29, [x11, #-104]
    4350: 29 20 3c 20  	<unknown>
    4354: 30 29 00 00  	udf	#10544
    4358: 2f 55 73 65  	<unknown>
    435c: 72 73 2f 6e  	uabdl2	v18.8h, v27.16b, v15.16b
    4360: 69 6b 61 2f  	umlsl	v9.4s, v27.4h, v1.h[6]
    4364: 75 65 66 69  	ldpsw	x21, x25, [x11, #-208]
    4368: 5f 74 65 73  	<unknown>
    436c: 74 69 6e 67  	<unknown>
    4370: 2f 65 64 6b  	<unknown>
    4374: 32 2f 42 75  	<unknown>
    4378: 69 6c 64 2f  	<unknown>
    437c: 42 61 72 65  	<unknown>
    4380: 42 6f 6e 65  	<unknown>
    4384: 73 50 6b 67  	<unknown>
    4388: 2f 44 45 42  	<unknown>
    438c: 55 47 5f 47  	<unknown>
    4390: 43 43 2f 41  	<unknown>
    4394: 41 52 43 48  	ldxrh	w1, [x18]
    4398: 36 34 2f 42  	<unknown>
    439c: 61 72 65 42  	<unknown>
    43a0: 6f 6e 65 73  	<unknown>
    43a4: 50 6b 67 2f  	umlsl	v16.4s, v26.4h, v7.h[6]
    43a8: 55 45 46 49  	<unknown>
    43ac: 53 65 6c 66  	<unknown>
    43b0: 52 65 70 2f  	<unknown>
    43b4: 55 45 46 49  	<unknown>
    43b8: 53 65 6c 66  	<unknown>
    43bc: 52 65 70 2f  	<unknown>
    43c0: 44 45 42 55  	<unknown>
    43c4: 47 2f 41 75  	<unknown>
    43c8: 74 6f 47 65  	<unknown>
    43cc: 6e 2e 63 00  	<unknown>
    43d0: 46 6f 72 6d  	ldp	d6, d27, [x26, #-224]
    43d4: 61 74 20 21  	<unknown>
    43d8: 3d 20 28 28  	stnp	w29, w8, [x1, #-192]
    43dc: 76 6f 69 64  	<unknown>
    43e0: 20 2a 29 20  	<unknown>
    43e4: 30 29 00 00  	udf	#10544
    43e8: 2f 55 73 65  	<unknown>
    43ec: 72 73 2f 6e  	uabdl2	v18.8h, v27.16b, v15.16b
    43f0: 69 6b 61 2f  	umlsl	v9.4s, v27.4h, v1.h[6]
    43f4: 75 65 66 69  	ldpsw	x21, x25, [x11, #-208]
    43f8: 5f 74 65 73  	<unknown>
    43fc: 74 69 6e 67  	<unknown>
    4400: 2f 65 64 6b  	<unknown>
    4404: 32 2f 4d 64  	<unknown>
    4408: 65 50 6b 67  	<unknown>
    440c: 2f 4c 69 62  	<unknown>
    4410: 72 61 72 79  	ldrh	w18, [x11, #6448]
    4414: 2f 55 65 66  	<unknown>
    4418: 69 44 65 62  	<unknown>
    441c: 75 67 4c 69  	ldpsw	x21, x25, [x27, #96]
    4420: 62 43 6f 6e  	raddhn2	v2.8h, v27.4s, v15.4s
    4424: 4f 75 74 2f  	<unknown>
    4428: 44 65 62 75  	<unknown>
    442c: 67 4c 69 62  	<unknown>
    4430: 2e 63 00 00  	udf	#25390
    4434: 00 00 00 00  	udf	#0
    4438: 41 53 53 45  	<unknown>
    443c: 52 54 20 5b  	<unknown>
    4440: 25 61 5d 20  	<unknown>
    4444: 25 61 28 25  	<unknown>
    4448: 64 29 3a 20  	<unknown>
    444c: 25 61 0a 00  	<unknown>
    4450: 42 75 66 66  	<unknown>
    4454: 65 72 20 21  	<unknown>
    4458: 3d 20 28 28  	stnp	w29, w8, [x1, #-192]
    445c: 76 6f 69 64  	<unknown>
    4460: 20 2a 29 20  	<unknown>
    4464: 30 29 00 00  	udf	#10544
    4468: 67 49 6d 61  	<unknown>
    446c: 67 65 48 61  	<unknown>
    4470: 6e 64 6c 65  	<unknown>
    4474: 20 21 3d 20  	<unknown>
    4478: 28 28 76 6f  	umlal2	v8.4s, v1.8h, v6.h[7]
    447c: 69 64 20 2a  	orn	w9, w3, w0, lsl #25
    4480: 29 20 30 29  	stp	w9, w8, [x1, #-128]
    4484: 00 00 00 00  	udf	#0
    4488: 2f 55 73 65  	<unknown>
    448c: 72 73 2f 6e  	uabdl2	v18.8h, v27.16b, v15.16b
    4490: 69 6b 61 2f  	umlsl	v9.4s, v27.4h, v1.h[6]
    4494: 75 65 66 69  	ldpsw	x21, x25, [x11, #-208]
    4498: 5f 74 65 73  	<unknown>
    449c: 74 69 6e 67  	<unknown>
    44a0: 2f 65 64 6b  	<unknown>
    44a4: 32 2f 4d 64  	<unknown>
    44a8: 65 50 6b 67  	<unknown>
    44ac: 2f 4c 69 62  	<unknown>
    44b0: 72 61 72 79  	ldrh	w18, [x11, #6448]
    44b4: 2f 55 65 66  	<unknown>
    44b8: 69 42 6f 6f  	mls	v9.8h, v19.8h, v15.h[2]
    44bc: 74 53 65 72  	<unknown>
    44c0: 76 69 63 65  	<unknown>
    44c4: 73 54 61 62  	<unknown>
    44c8: 6c 65 4c 69  	ldpsw	x12, x25, [x11, #96]
    44cc: 62 2f 55 65  	<unknown>
    44d0: 66 69 42 6f  	umlsl2	v6.4s, v11.8h, v2.h[4]
    44d4: 6f 74 53 65  	<unknown>
    44d8: 72 76 69 63  	<unknown>
    44dc: 65 73 54 61  	<unknown>
    44e0: 62 6c 65 4c  	<unknown>
    44e4: 69 62 2e 63  	<unknown>
		...
    44f0: 67 53 54 20  	<unknown>
    44f4: 21 3d 20 28  	stnp	w1, w15, [x9, #-256]
    44f8: 28 76 6f 69  	ldpsw	x8, x29, [x17, #-136]
    44fc: 64 20 2a 29  	stp	w4, w8, [x3, #-176]
    4500: 20 30 29 00  	<unknown>
    4504: 00 00 00 00  	udf	#0
    4508: 67 42 53 20  	<unknown>
    450c: 21 3d 20 28  	stnp	w1, w15, [x9, #-256]
    4510: 28 76 6f 69  	ldpsw	x8, x29, [x17, #-136]
    4514: 64 20 2a 29  	stp	w4, w8, [x3, #-176]
    4518: 20 30 29 00  	<unknown>
    451c: 00 00 00 00  	udf	#0
    4520: 67 52 54 20  	<unknown>
    4524: 21 3d 20 28  	stnp	w1, w15, [x9, #-256]
    4528: 28 76 6f 69  	ldpsw	x8, x29, [x17, #-136]
    452c: 64 20 2a 29  	stp	w4, w8, [x3, #-176]
    4530: 20 30 29 00  	<unknown>
    4534: 00 00 00 00  	udf	#0
    4538: 2f 55 73 65  	<unknown>
    453c: 72 73 2f 6e  	uabdl2	v18.8h, v27.16b, v15.16b
    4540: 69 6b 61 2f  	umlsl	v9.4s, v27.4h, v1.h[6]
    4544: 75 65 66 69  	ldpsw	x21, x25, [x11, #-208]
    4548: 5f 74 65 73  	<unknown>
    454c: 74 69 6e 67  	<unknown>
    4550: 2f 65 64 6b  	<unknown>
    4554: 32 2f 4d 64  	<unknown>
    4558: 65 50 6b 67  	<unknown>
    455c: 2f 4c 69 62  	<unknown>
    4560: 72 61 72 79  	ldrh	w18, [x11, #6448]
    4564: 2f 55 65 66  	<unknown>
    4568: 69 52 75 6e  	uabal2	v9.4s, v19.8h, v21.8h
    456c: 74 69 6d 65  	<unknown>
    4570: 53 65 72 76  	<unknown>
    4574: 69 63 65 73  	<unknown>
    4578: 54 61 62 6c  	ldnp	d20, d24, [x10, #-480]
    457c: 65 4c 69 62  	<unknown>
    4580: 2f 55 65 66  	<unknown>
    4584: 69 52 75 6e  	uabal2	v9.4s, v19.8h, v21.8h
    4588: 74 69 6d 65  	<unknown>
    458c: 53 65 72 76  	<unknown>
    4590: 69 63 65 73  	<unknown>
    4594: 54 61 62 6c  	ldnp	d20, d24, [x10, #-480]
    4598: 65 4c 69 62  	<unknown>
    459c: 2e 63 00 00  	udf	#25390
    45a0: 2f 55 73 65  	<unknown>
    45a4: 72 73 2f 6e  	uabdl2	v18.8h, v27.16b, v15.16b
    45a8: 69 6b 61 2f  	umlsl	v9.4s, v27.4h, v1.h[6]
    45ac: 75 65 66 69  	ldpsw	x21, x25, [x11, #-208]
    45b0: 5f 74 65 73  	<unknown>
    45b4: 74 69 6e 67  	<unknown>
    45b8: 2f 65 64 6b  	<unknown>
    45bc: 32 2f 4d 64  	<unknown>
    45c0: 65 50 6b 67  	<unknown>
    45c4: 2f 4c 69 62  	<unknown>
    45c8: 72 61 72 79  	ldrh	w18, [x11, #6448]
    45cc: 2f 55 65 66  	<unknown>
    45d0: 69 4c 69 62  	<unknown>
    45d4: 2f 55 65 66  	<unknown>
    45d8: 69 4c 69 62  	<unknown>
    45dc: 50 72 69 6e  	uabdl2	v16.4s, v18.8h, v9.8h
    45e0: 74 2e 63 00  	<unknown>
    45e4: 00 00 00 00  	udf	#0
    45e8: 28 28 55 49  	<unknown>
    45ec: 4e 54 4e 29  	ldp	w14, w21, [x2, #112]
    45f0: 46 6f 72 6d  	ldp	d6, d27, [x26, #-224]
    45f4: 61 74 20 26  	<unknown>
    45f8: 20 30 78 30  	adr	x0, #984581
    45fc: 30 30 30 30  	adr	x16, #394757
    4600: 30 30 31 29  	stp	w16, w12, [x1, #-120]
    4604: 20 3d 3d 20  	<unknown>
    4608: 30 00 00 00  	udf	#48
    460c: 00 00 00 00  	udf	#0
    4610: 43 6f 6e 73  	<unknown>
    4614: 6f 6c 65 20  	<unknown>
    4618: 21 3d 20 28  	stnp	w1, w15, [x9, #-256]
    461c: 28 76 6f 69  	ldpsw	x8, x29, [x17, #-136]
    4620: 64 20 2a 29  	stp	w4, w8, [x3, #-176]
    4624: 20 30 29 00  	<unknown>
    4628: 44 69 76 69  	ldpsw	x4, x26, [x10, #-80]
    462c: 73 6f 72 20  	<unknown>
    4630: 21 3d 20 30  	adr	x1, #264101
    4634: 00 00 00 00  	udf	#0
    4638: 2f 55 73 65  	<unknown>
    463c: 72 73 2f 6e  	uabdl2	v18.8h, v27.16b, v15.16b
    4640: 69 6b 61 2f  	umlsl	v9.4s, v27.4h, v1.h[6]
    4644: 75 65 66 69  	ldpsw	x21, x25, [x11, #-208]
    4648: 5f 74 65 73  	<unknown>
    464c: 74 69 6e 67  	<unknown>
    4650: 2f 65 64 6b  	<unknown>
    4654: 32 2f 4d 64  	<unknown>
    4658: 65 50 6b 67  	<unknown>
    465c: 2f 4c 69 62  	<unknown>
    4660: 72 61 72 79  	ldrh	w18, [x11, #6448]
    4664: 2f 42 61 73  	<unknown>
    4668: 65 4c 69 62  	<unknown>
    466c: 2f 44 69 76  	<unknown>
    4670: 55 36 34 78  	<unknown>
    4674: 33 32 2e 63  	<unknown>
		...
    4680: 28 28 55 49  	<unknown>
    4684: 4e 54 4e 29  	ldp	w14, w21, [x2, #112]
    4688: 53 74 72 69  	ldpsw	x19, x29, [x2, #-112]
    468c: 6e 67 20 26  	<unknown>
    4690: 20 30 78 30  	adr	x0, #984581
    4694: 30 30 30 30  	adr	x16, #394757
    4698: 30 30 31 29  	stp	w16, w12, [x1, #-120]
    469c: 20 3d 3d 20  	<unknown>
    46a0: 30 00 00 00  	udf	#48
    46a4: 00 00 00 00  	udf	#0
    46a8: 2f 55 73 65  	<unknown>
    46ac: 72 73 2f 6e  	uabdl2	v18.8h, v27.16b, v15.16b
    46b0: 69 6b 61 2f  	umlsl	v9.4s, v27.4h, v1.h[6]
    46b4: 75 65 66 69  	ldpsw	x21, x25, [x11, #-208]
    46b8: 5f 74 65 73  	<unknown>
    46bc: 74 69 6e 67  	<unknown>
    46c0: 2f 65 64 6b  	<unknown>
    46c4: 32 2f 4d 64  	<unknown>
    46c8: 65 50 6b 67  	<unknown>
    46cc: 2f 4c 69 62  	<unknown>
    46d0: 72 61 72 79  	ldrh	w18, [x11, #6448]
    46d4: 2f 42 61 73  	<unknown>
    46d8: 65 4c 69 62  	<unknown>
    46dc: 2f 53 61 66  	<unknown>
    46e0: 65 53 74 72  	<unknown>
    46e4: 69 6e 67 2e  	umin	v9.4h, v19.4h, v7.4h
    46e8: 63 00 00 00  	udf	#99
    46ec: 00 00 00 00  	udf	#0
    46f0: 28 42 75 66  	<unknown>
    46f4: 66 65 72 20  	<unknown>
    46f8: 21 3d 20 28  	stnp	w1, w15, [x9, #-256]
    46fc: 28 76 6f 69  	ldpsw	x8, x29, [x17, #-136]
    4700: 64 20 2a 29  	stp	w4, w8, [x3, #-176]
    4704: 20 30 29 29  	stp	w0, w12, [x1, #-184]
		...
    4710: 28 28 4c 65  	<unknown>
    4714: 6e 67 74 68  	<unknown>
    4718: 20 26 20 30  	adr	x0, #263365
    471c: 78 30 30 30  	adr	x24, #394765
    4720: 30 30 30 30  	adr	x16, #394757
    4724: 31 29 20 3d  	str	b17, [x9, #2058]
    4728: 3d 20 30 29  	stp	w29, w8, [x1, #-128]
    472c: 00 00 00 00  	udf	#0
    4730: 28 4d 61 78  	<unknown>
    4734: 42 75 66 66  	<unknown>
    4738: 65 72 53 69  	ldpsw	x5, x28, [x19, #152]
    473c: 7a 65 20 3e  	<unknown>
    4740: 3d 20 4c 65  	<unknown>
    4744: 6e 67 74 68  	<unknown>
    4748: 20 2f 20 32  	orr	w0, w25, #0xfff
    474c: 29 00 00 00  	udf	#41
    4750: 2f 55 73 65  	<unknown>
    4754: 72 73 2f 6e  	uabdl2	v18.8h, v27.16b, v15.16b
    4758: 69 6b 61 2f  	umlsl	v9.4s, v27.4h, v1.h[6]
    475c: 75 65 66 69  	ldpsw	x21, x25, [x11, #-208]
    4760: 5f 74 65 73  	<unknown>
    4764: 74 69 6e 67  	<unknown>
    4768: 2f 65 64 6b  	<unknown>
    476c: 32 2f 4d 64  	<unknown>
    4770: 65 50 6b 67  	<unknown>
    4774: 2f 4c 69 62  	<unknown>
    4778: 72 61 72 79  	ldrh	w18, [x11, #6448]
    477c: 2f 42 61 73  	<unknown>
    4780: 65 4c 69 62  	<unknown>
    4784: 2f 41 72 6d  	ldp	d15, d16, [x9, #-224]
    4788: 2f 55 6e 61  	<unknown>
    478c: 6c 69 67 6e  	<unknown>
    4790: 65 64 2e 63  	<unknown>
    4794: 00 00 00 00  	udf	#0
    4798: 28 28 28 55  	<unknown>
    479c: 49 4e 54 4e  	<unknown>
    47a0: 29 20 28 53  	<unknown>
    47a4: 74 61 72 74  	<unknown>
    47a8: 4f 66 42 75  	<unknown>
    47ac: 66 66 65 72  	<unknown>
    47b0: 29 29 20 26  	<unknown>
    47b4: 20 30 78 30  	adr	x0, #984581
    47b8: 31 29 20 3d  	str	b17, [x9, #2058]
    47bc: 3d 20 30 00  	<unknown>
    47c0: 2f 55 73 65  	<unknown>
    47c4: 72 73 2f 6e  	uabdl2	v18.8h, v27.16b, v15.16b
    47c8: 69 6b 61 2f  	umlsl	v9.4s, v27.4h, v1.h[6]
    47cc: 75 65 66 69  	ldpsw	x21, x25, [x11, #-208]
    47d0: 5f 74 65 73  	<unknown>
    47d4: 74 69 6e 67  	<unknown>
    47d8: 2f 65 64 6b  	<unknown>
    47dc: 32 2f 4d 64  	<unknown>
    47e0: 65 50 6b 67  	<unknown>
    47e4: 2f 4c 69 62  	<unknown>
    47e8: 72 61 72 79  	ldrh	w18, [x11, #6448]
    47ec: 2f 42 61 73  	<unknown>
    47f0: 65 50 72 69  	ldpsw	x5, x20, [x3, #-112]
    47f4: 6e 74 4c 69  	ldpsw	x14, x29, [x3, #96]
    47f8: 62 2f 50 72  	<unknown>
    47fc: 69 6e 74 4c  	<unknown>
    4800: 69 62 2e 63  	<unknown>
    4804: 00 00 00 00  	udf	#0
    4808: 28 28 28 55  	<unknown>
    480c: 49 4e 54 4e  	<unknown>
    4810: 29 20 28 46  	<unknown>
    4814: 6f 72 6d 61  	<unknown>
    4818: 74 53 74 72  	<unknown>
    481c: 69 6e 67 29  	ldp	w9, w27, [x19, #-200]
    4820: 29 20 26 20  	<unknown>
    4824: 30 78 30 31  	adds	w16, w1, #3102
    4828: 29 20 3d 3d  	str	b9, [x1, #3912]
    482c: 20 30 00 00  	udf	#12320
    4830: 2f 55 73 65  	<unknown>
    4834: 72 73 2f 6e  	uabdl2	v18.8h, v27.16b, v15.16b
    4838: 69 6b 61 2f  	umlsl	v9.4s, v27.4h, v1.h[6]
    483c: 75 65 66 69  	ldpsw	x21, x25, [x11, #-208]
    4840: 5f 74 65 73  	<unknown>
    4844: 74 69 6e 67  	<unknown>
    4848: 2f 65 64 6b  	<unknown>
    484c: 32 2f 4d 64  	<unknown>
    4850: 65 50 6b 67  	<unknown>
    4854: 2f 4c 69 62  	<unknown>
    4858: 72 61 72 79  	ldrh	w18, [x11, #6448]
    485c: 2f 42 61 73  	<unknown>
    4860: 65 50 72 69  	ldpsw	x5, x20, [x3, #-112]
    4864: 6e 74 4c 69  	ldpsw	x14, x29, [x3, #96]
    4868: 62 2f 50 72  	<unknown>
    486c: 69 6e 74 4c  	<unknown>
    4870: 69 62 49 6e  	<unknown>
    4874: 74 65 72 6e  	umax	v20.8h, v11.8h, v18.8h
    4878: 61 6c 2e 63  	<unknown>
    487c: 00 00 00 00  	udf	#0
    4880: 57 69 64 74  	<unknown>
    4884: 68 20 3c 20  	<unknown>
    4888: 33 38 00 00  	udf	#14387
    488c: 00 00 00 00  	udf	#0
    4890: 28 46 6c 61  	<unknown>
    4894: 67 73 20 26  	<unknown>
    4898: 20 7e 28 30  	adr	x0, #331717
    489c: 78 30 31 20  	<unknown>
    48a0: 7c 20 30 78  	<unknown>
    48a4: 30 38 20 7c  	<unknown>
    48a8: 20 30 78 32  	<unknown>
    48ac: 30 20 7c 20  	<unknown>
    48b0: 30 78 38 30  	adr	x16, #462597
    48b4: 29 29 20 3d  	str	b9, [x9, #2058]
    48b8: 3d 20 30 00  	<unknown>
    48bc: 00 00 00 00  	udf	#0
    48c0: 28 28 46 6c  	ldnp	d8, d10, [x1, #96]
    48c4: 61 67 73 20  	<unknown>
    48c8: 26 20 30 78  	<unknown>
    48cc: 30 38 29 20  	<unknown>
    48d0: 3d 3d 20 30  	adr	x29, #264101
    48d4: 29 20 7c 7c  	<unknown>
    48d8: 20 28 28 46  	<unknown>
    48dc: 6c 61 67 73  	<unknown>
    48e0: 20 26 20 30  	adr	x0, #263365
    48e4: 78 38 30 29  	stp	w24, w14, [x3, #-128]
    48e8: 20 3d 3d 20  	<unknown>
    48ec: 30 29 00 00  	udf	#10544
    48f0: 28 42 75 66  	<unknown>
    48f4: 66 65 72 53  	<unknown>
    48f8: 69 7a 65 20  	<unknown>
    48fc: 3c 3d 20 28  	stnp	w28, w15, [x9, #-256]
    4900: 5f 67 50 63  	<unknown>
    4904: 64 5f 46 69  	ldpsw	x4, x23, [x27, #48]
    4908: 78 65 64 41  	<unknown>
    490c: 74 42 75 69  	ldpsw	x20, x16, [x19, #-88]
    4910: 6c 64 5f 50  	adr	x12, #781454
    4914: 63 64 4d 61  	<unknown>
    4918: 78 69 6d 75  	<unknown>
    491c: 6d 41 73 63  	<unknown>
    4920: 69 69 53 74  	<unknown>
    4924: 72 69 6e 67  	<unknown>
    4928: 4c 65 6e 67  	<unknown>
    492c: 74 68 29 29  	stp	w20, w26, [x3, #-184]
		...
    4938: 28 42 75 66  	<unknown>
    493c: 66 65 72 53  	<unknown>
    4940: 69 7a 65 20  	<unknown>
    4944: 3c 3d 20 28  	stnp	w28, w15, [x9, #-256]
    4948: 5f 67 50 63  	<unknown>
    494c: 64 5f 46 69  	ldpsw	x4, x23, [x27, #48]
    4950: 78 65 64 41  	<unknown>
    4954: 74 42 75 69  	ldpsw	x20, x16, [x19, #-88]
    4958: 6c 64 5f 50  	adr	x12, #781454
    495c: 63 64 4d 61  	<unknown>
    4960: 78 69 6d 75  	<unknown>
    4964: 6d 55 6e 69  	ldpsw	x13, x21, [x11, #-144]
    4968: 63 6f 64 65  	<unknown>
    496c: 53 74 72 69  	ldpsw	x19, x29, [x2, #-112]
    4970: 6e 67 4c 65  	<unknown>
    4974: 6e 67 74 68  	<unknown>
    4978: 29 20 2a 20  	<unknown>
    497c: 73 69 7a 65  	<unknown>
    4980: 6f 66 20 28  	stnp	w15, w25, [x19, #-256]
    4984: 43 48 41 52  	<unknown>
    4988: 31 36 29 20  	<unknown>
    498c: 2b 20 31 29  	stp	w11, w8, [x1, #-120]
		...
    4998: 28 28 46 6c  	ldnp	d8, d10, [x1, #96]
    499c: 61 67 73 20  	<unknown>
    49a0: 26 20 7e 28  	ldnp	w6, w8, [x1, #-16]
    49a4: 30 78 30 31  	adds	w16, w1, #3102
    49a8: 20 7c 20 30  	adr	x0, #266117
    49ac: 78 30 38 20  	<unknown>
    49b0: 7c 20 30 78  	<unknown>
    49b4: 32 30 20 7c  	<unknown>
    49b8: 20 30 78 38  	<unknown>
    49bc: 30 29 29 20  	<unknown>
    49c0: 3d 3d 20 30  	adr	x29, #264101
    49c4: 29 00 00 00  	udf	#41
    49c8: 28 28 28 46  	<unknown>
    49cc: 6c 61 67 73  	<unknown>
    49d0: 20 26 20 30  	adr	x0, #263365
    49d4: 78 30 38 29  	stp	w24, w12, [x3, #-64]
    49d8: 20 3d 3d 20  	<unknown>
    49dc: 30 29 20 7c  	<unknown>
    49e0: 7c 20 28 28  	stnp	w28, w8, [x3, #-192]
    49e4: 46 6c 61 67  	<unknown>
    49e8: 73 20 26 20  	<unknown>
    49ec: 30 78 38 30  	adr	x16, #462597
    49f0: 29 20 3d 3d  	str	b9, [x1, #3912]
    49f4: 20 30 29 29  	stp	w0, w12, [x1, #-184]
		...
    4a00: 28 57 69 64  	<unknown>
    4a04: 74 68 20 3c  	str	b20, [x3, x0]
    4a08: 20 33 38 29  	stp	w0, w12, [x25, #-64]
    4a0c: 00 00 00 00  	udf	#0
    4a10: 28 42 75 66  	<unknown>
    4a14: 66 65 72 53  	<unknown>
    4a18: 69 7a 65 20  	<unknown>
    4a1c: 3e 3d 20 28  	stnp	w30, w15, [x9, #-256]
    4a20: 57 69 64 74  	<unknown>
    4a24: 68 20 2b 20  	<unknown>
    4a28: 31 29 20 2a  	orn	w17, w9, w0, lsl #10
    4a2c: 20 49 6e 63  	<unknown>
    4a30: 72 65 6d 65  	<unknown>
    4a34: 6e 74 29 00  	<unknown>
    4a38: 28 46 6f 72  	<unknown>
    4a3c: 6d 61 74 20  	<unknown>
    4a40: 21 3d 20 28  	stnp	w1, w15, [x9, #-256]
    4a44: 28 76 6f 69  	ldpsw	x8, x29, [x17, #-136]
    4a48: 64 20 2a 29  	stp	w4, w8, [x3, #-176]
    4a4c: 20 30 29 29  	stp	w0, w12, [x1, #-184]
		...
    4a58: 28 42 75 66  	<unknown>
    4a5c: 66 65 72 53  	<unknown>
    4a60: 69 7a 65 20  	<unknown>
    4a64: 3c 3d 20 28  	stnp	w28, w15, [x9, #-256]
    4a68: 5f 67 50 63  	<unknown>
    4a6c: 64 5f 46 69  	ldpsw	x4, x23, [x27, #48]
    4a70: 78 65 64 41  	<unknown>
    4a74: 74 42 75 69  	ldpsw	x20, x16, [x19, #-88]
    4a78: 6c 64 5f 50  	adr	x12, #781454
    4a7c: 63 64 4d 61  	<unknown>
    4a80: 78 69 6d 75  	<unknown>
    4a84: 6d 55 6e 69  	ldpsw	x13, x21, [x11, #-144]
    4a88: 63 6f 64 65  	<unknown>
    4a8c: 53 74 72 69  	ldpsw	x19, x29, [x2, #-112]
    4a90: 6e 67 4c 65  	<unknown>
    4a94: 6e 67 74 68  	<unknown>
    4a98: 29 29 00 00  	udf	#10537
    4a9c: 00 00 00 00  	udf	#0
    4aa0: 28 53 74 72  	<unknown>
    4aa4: 6e 4c 65 6e  	uqshl	v14.8h, v3.8h, v5.8h
    4aa8: 53 20 28 28  	stnp	w19, w8, [x2, #-192]
    4aac: 43 48 41 52  	<unknown>
    4ab0: 31 36 20 2a  	orn	w17, w17, w0, lsl #13
    4ab4: 29 46 6f 72  	<unknown>
    4ab8: 6d 61 74 2c  	ldnp	s13, s24, [x11, #-96]
    4abc: 20 28 5f 67  	<unknown>
    4ac0: 50 63 64 5f  	<unknown>
    4ac4: 46 69 78 65  	<unknown>
    4ac8: 64 41 74 42  	<unknown>
    4acc: 75 69 6c 64  	<unknown>
    4ad0: 5f 50 63 64  	<unknown>
    4ad4: 4d 61 78 69  	ldpsw	x13, x24, [x10, #-64]
    4ad8: 6d 75 6d 55  	<unknown>
    4adc: 6e 69 63 6f  	umlsl2	v14.4s, v11.8h, v3.h[6]
    4ae0: 64 65 53 74  	<unknown>
    4ae4: 72 69 6e 67  	<unknown>
    4ae8: 4c 65 6e 67  	<unknown>
    4aec: 74 68 29 20  	<unknown>
    4af0: 2b 20 31 29  	stp	w11, w8, [x1, #-120]
    4af4: 20 3c 3d 20  	<unknown>
    4af8: 28 5f 67 50  	adr	x8, #846822
    4afc: 63 64 5f 46  	<unknown>
    4b00: 69 78 65 64  	<unknown>
    4b04: 41 74 42 75  	<unknown>
    4b08: 69 6c 64 5f  	<unknown>
    4b0c: 50 63 64 4d  	<unknown>
    4b10: 61 78 69 6d  	ldp	d1, d30, [x3, #-368]
    4b14: 75 6d 55 6e  	<unknown>
    4b18: 69 63 6f 64  	<unknown>
    4b1c: 65 53 74 72  	<unknown>
    4b20: 69 6e 67 4c  	<unknown>
    4b24: 65 6e 67 74  	<unknown>
    4b28: 68 29 29 00  	<unknown>
    4b2c: 00 00 00 00  	udf	#0
    4b30: 28 41 73 63  	<unknown>
    4b34: 69 69 53 74  	<unknown>
    4b38: 72 6e 4c 65  	<unknown>
    4b3c: 6e 53 20 28  	stnp	w14, w20, [x27, #-256]
    4b40: 46 6f 72 6d  	ldp	d6, d27, [x26, #-224]
    4b44: 61 74 2c 20  	<unknown>
    4b48: 28 5f 67 50  	adr	x8, #846822
    4b4c: 63 64 5f 46  	<unknown>
    4b50: 69 78 65 64  	<unknown>
    4b54: 41 74 42 75  	<unknown>
    4b58: 69 6c 64 5f  	<unknown>
    4b5c: 50 63 64 4d  	<unknown>
    4b60: 61 78 69 6d  	ldp	d1, d30, [x3, #-368]
    4b64: 75 6d 41 73  	<unknown>
    4b68: 63 69 69 53  	<unknown>
    4b6c: 74 72 69 6e  	uabdl2	v20.4s, v19.8h, v9.8h
    4b70: 67 4c 65 6e  	uqshl	v7.8h, v3.8h, v5.8h
    4b74: 67 74 68 29  	ldp	w7, w29, [x3, #-192]
    4b78: 20 2b 20 31  	adds	w0, w25, #2058
    4b7c: 29 20 3c 3d  	str	b9, [x1, #3848]
    4b80: 20 28 5f 67  	<unknown>
    4b84: 50 63 64 5f  	<unknown>
    4b88: 46 69 78 65  	<unknown>
    4b8c: 64 41 74 42  	<unknown>
    4b90: 75 69 6c 64  	<unknown>
    4b94: 5f 50 63 64  	<unknown>
    4b98: 4d 61 78 69  	ldpsw	x13, x24, [x10, #-64]
    4b9c: 6d 75 6d 41  	<unknown>
    4ba0: 73 63 69 69  	ldpsw	x19, x24, [x27, #-184]
    4ba4: 53 74 72 69  	ldpsw	x19, x29, [x2, #-112]
    4ba8: 6e 67 4c 65  	<unknown>
    4bac: 6e 67 74 68  	<unknown>
    4bb0: 29 29 00 00  	udf	#10537
    4bb4: 00 00 00 00  	udf	#0
    4bb8: 3c 6e 75 6c  	ldnp	d28, d27, [x17, #-176]
    4bbc: 6c 20 73 74  	<unknown>
    4bc0: 72 69 6e 67  	<unknown>
    4bc4: 3e 00 00 00  	udf	#62
    4bc8: 3c 6e 75 6c  	ldnp	d28, d27, [x17, #-176]
    4bcc: 6c 20 67 75  	<unknown>
    4bd0: 69 64 3e 00  	<unknown>
    4bd4: 00 00 00 00  	udf	#0
    4bd8: 25 30 38 78  	<unknown>
    4bdc: 2d 25 30 34  	cbz	w13, 0x65080
    4be0: 78 2d 25 30  	adr	x24, #304557
    4be4: 34 78 2d 25  	<unknown>
    4be8: 30 32 78 25  	<unknown>
    4bec: 30 32 78 2d  	ldp	s16, s12, [x17, #-64]
    4bf0: 25 30 32 78  	<unknown>
    4bf4: 25 30 32 78  	<unknown>
    4bf8: 25 30 32 78  	<unknown>
    4bfc: 25 30 32 78  	<unknown>
    4c00: 25 30 32 78  	<unknown>
    4c04: 25 30 32 78  	<unknown>
		...
    4c10: 3c 6e 75 6c  	ldnp	d28, d27, [x17, #-176]
    4c14: 6c 20 74 69  	ldpsw	x12, x8, [x3, #-96]
    4c18: 6d 65 3e 00  	<unknown>
    4c1c: 00 00 00 00  	udf	#0
    4c20: 25 30 32 64  	<unknown>
    4c24: 2f 25 30 32  	orr	w15, w9, #0x3ff0000
    4c28: 64 2f 25 30  	adr	x4, #304621
    4c2c: 34 64 20 20  	<unknown>
    4c30: 25 30 32 64  	<unknown>
    4c34: 3a 25 30 32  	orr	w26, w9, #0x3ff0000
    4c38: 64 00 00 00  	udf	#100
    4c3c: 00 00 00 00  	udf	#0
    4c40: 25 30 38 58  	ldr	x5, 0x75244
    4c44: 00 00 00 00  	udf	#0
    4c48: 0d 0a 00 00  	udf	#2573
    4c4c: 00 00 00 00  	udf	#0
    4c50: 0d 00 00 00  	udf	#13
    4c54: 00 00 00 00  	udf	#0
    4c58: 50 61 67 65  	<unknown>
    4c5c: 73 20 21 3d  	str	b19, [x3, #2120]
    4c60: 20 30 00 00  	udf	#12320
    4c64: 00 00 00 00  	udf	#0
    4c68: 2f 55 73 65  	<unknown>
    4c6c: 72 73 2f 6e  	uabdl2	v18.8h, v27.16b, v15.16b
    4c70: 69 6b 61 2f  	umlsl	v9.4s, v27.4h, v1.h[6]
    4c74: 75 65 66 69  	ldpsw	x21, x25, [x11, #-208]
    4c78: 5f 74 65 73  	<unknown>
    4c7c: 74 69 6e 67  	<unknown>
    4c80: 2f 65 64 6b  	<unknown>
    4c84: 32 2f 4d 64  	<unknown>
    4c88: 65 50 6b 67  	<unknown>
    4c8c: 2f 4c 69 62  	<unknown>
    4c90: 72 61 72 79  	ldrh	w18, [x11, #6448]
    4c94: 2f 55 65 66  	<unknown>
    4c98: 69 4d 65 6d  	ldp	d9, d19, [x11, #-432]
    4c9c: 6f 72 79 41  	<unknown>
    4ca0: 6c 6c 6f 63  	<unknown>
    4ca4: 61 74 69 6f  	uqshl	v1.2d, v3.2d, #41
    4ca8: 6e 4c 69 62  	<unknown>
    4cac: 2f 4d 65 6d  	ldp	d15, d19, [x9, #-432]
    4cb0: 6f 72 79 41  	<unknown>
    4cb4: 6c 6c 6f 63  	<unknown>
    4cb8: 61 74 69 6f  	uqshl	v1.2d, v3.2d, #41
    4cbc: 6e 4c 69 62  	<unknown>
    4cc0: 2e 63 00 00  	udf	#25390
    4cc4: 00 00 00 00  	udf	#0
    4cc8: 2f 55 73 65  	<unknown>
    4ccc: 72 73 2f 6e  	uabdl2	v18.8h, v27.16b, v15.16b
    4cd0: 69 6b 61 2f  	umlsl	v9.4s, v27.4h, v1.h[6]
    4cd4: 75 65 66 69  	ldpsw	x21, x25, [x11, #-208]
    4cd8: 5f 74 65 73  	<unknown>
    4cdc: 74 69 6e 67  	<unknown>
    4ce0: 2f 65 64 6b  	<unknown>
    4ce4: 32 2f 4d 64  	<unknown>
    4ce8: 65 50 6b 67  	<unknown>
    4cec: 2f 4c 69 62  	<unknown>
    4cf0: 72 61 72 79  	ldrh	w18, [x11, #6448]
    4cf4: 2f 42 61 73  	<unknown>
    4cf8: 65 4c 69 62  	<unknown>
    4cfc: 2f 44 69 76  	<unknown>
    4d00: 55 36 34 78  	<unknown>
    4d04: 33 32 52 65  	<unknown>
    4d08: 6d 61 69 6e  	rsubhn2	v13.8h, v11.4s, v9.4s
    4d0c: 64 65 72 2e  	umax	v4.4h, v11.4h, v18.4h
    4d10: 63 00 00 00  	udf	#99
    4d14: 40 42 0f 00  	<unknown>
    4d18: 40 42 0f 00  	<unknown>
    4d1c: 00 00 00 80  	<unknown>
    4d20: 00 00 00 00  	udf	#0
    4d24: ff ff ff ff  	<unknown>
    4d28: 40 01 00 00  	udf	#320
    4d2c: 00 00 00 00  	udf	#0
    4d30: 45 00 46 00  	<unknown>
    4d34: 49 00 20 00  	<unknown>
    4d38: 42 00 6f 00  	<unknown>
    4d3c: 6f 00 74 00  	<unknown>
    4d40: 53 00 65 00  	<unknown>
    4d44: 72 00 76 00  	<unknown>
    4d48: 69 00 63 00  	<unknown>
    4d4c: 65 00 73 00  	<unknown>
    4d50: 20 00 4f 00  	<unknown>
    4d54: 70 00 65 00  	<unknown>
    4d58: 6e 00 50 00  	<unknown>
    4d5c: 72 00 6f 00  	<unknown>
    4d60: 74 00 6f 00  	<unknown>
    4d64: 63 00 6f 00  	<unknown>
    4d68: 6c 00 20 00  	<unknown>
    4d6c: 63 00 61 00  	<unknown>
    4d70: 6c 00 6c 00  	<unknown>
    4d74: 20 00 77 00  	<unknown>
    4d78: 69 00 74 00  	<unknown>
    4d7c: 68 00 20 00  	<unknown>
    4d80: 6c 00 6f 00  	<unknown>
    4d84: 61 00 64 00  	<unknown>
    4d88: 65 00 64 00  	<unknown>
    4d8c: 69 00 6d 00  	<unknown>
    4d90: 61 00 67 00  	<unknown>
    4d94: 65 00 70 00  	<unknown>
    4d98: 72 00 6f 00  	<unknown>
    4d9c: 74 00 6f 00  	<unknown>
    4da0: 63 00 6f 00  	<unknown>
    4da4: 6c 00 20 00  	<unknown>
    4da8: 77 00 61 00  	<unknown>
    4dac: 73 00 20 00  	<unknown>
    4db0: 73 00 75 00  	<unknown>
    4db4: 63 00 63 00  	<unknown>
    4db8: 65 00 73 00  	<unknown>
    4dbc: 73 00 66 00  	<unknown>
    4dc0: 75 00 6c 00  	<unknown>
    4dc4: 3a 00 20 00  	<unknown>
    4dc8: 25 00 70 00  	<unknown>
    4dcc: 20 00 0a 00  	<unknown>
		...
    4dd8: 45 00 46 00  	<unknown>
    4ddc: 49 00 20 00  	<unknown>
    4de0: 42 00 6f 00  	<unknown>
    4de4: 6f 00 74 00  	<unknown>
    4de8: 53 00 65 00  	<unknown>
    4dec: 72 00 76 00  	<unknown>
    4df0: 69 00 63 00  	<unknown>
    4df4: 65 00 73 00  	<unknown>
    4df8: 20 00 4f 00  	<unknown>
    4dfc: 70 00 65 00  	<unknown>
    4e00: 6e 00 50 00  	<unknown>
    4e04: 72 00 6f 00  	<unknown>
    4e08: 74 00 6f 00  	<unknown>
    4e0c: 63 00 6f 00  	<unknown>
    4e10: 6c 00 20 00  	<unknown>
    4e14: 63 00 61 00  	<unknown>
    4e18: 6c 00 6c 00  	<unknown>
    4e1c: 20 00 77 00  	<unknown>
    4e20: 69 00 74 00  	<unknown>
    4e24: 68 00 20 00  	<unknown>
    4e28: 73 00 69 00  	<unknown>
    4e2c: 6d 00 70 00  	<unknown>
    4e30: 6c 00 65 00  	<unknown>
    4e34: 66 00 69 00  	<unknown>
    4e38: 6c 00 65 00  	<unknown>
    4e3c: 73 00 79 00  	<unknown>
    4e40: 73 00 74 00  	<unknown>
    4e44: 65 00 6d 00  	<unknown>
    4e48: 70 00 72 00  	<unknown>
    4e4c: 6f 00 74 00  	<unknown>
    4e50: 6f 00 63 00  	<unknown>
    4e54: 6f 00 6c 00  	<unknown>
    4e58: 20 00 77 00  	<unknown>
    4e5c: 61 00 73 00  	<unknown>
    4e60: 20 00 73 00  	<unknown>
    4e64: 75 00 63 00  	<unknown>
    4e68: 63 00 65 00  	<unknown>
    4e6c: 73 00 73 00  	<unknown>
    4e70: 66 00 75 00  	<unknown>
    4e74: 6c 00 3a 00  	<unknown>
    4e78: 20 00 25 00  	<unknown>
    4e7c: 70 00 20 00  	<unknown>
    4e80: 0a 00 00 00  	udf	#10
    4e84: 00 00 00 00  	udf	#0
    4e88: 5c 00 55 00  	<unknown>
    4e8c: 45 00 46 00  	<unknown>
    4e90: 49 00 53 00  	<unknown>
    4e94: 65 00 6c 00  	<unknown>
    4e98: 66 00 52 00  	<unknown>
    4e9c: 65 00 70 00  	<unknown>
    4ea0: 2e 00 65 00  	<unknown>
    4ea4: 66 00 69 00  	<unknown>
		...
    4eb0: 6f 00 70 00  	<unknown>
    4eb4: 65 00 6e 00  	<unknown>
    4eb8: 20 00 72 00  	<unknown>
    4ebc: 6f 00 6f 00  	<unknown>
    4ec0: 74 00 20 00  	<unknown>
    4ec4: 76 00 6f 00  	<unknown>
    4ec8: 6c 00 75 00  	<unknown>
    4ecc: 6d 00 65 00  	<unknown>
    4ed0: 20 00 73 00  	<unknown>
    4ed4: 75 00 63 00  	<unknown>
    4ed8: 63 00 65 00  	<unknown>
    4edc: 73 00 73 00  	<unknown>
    4ee0: 66 00 75 00  	<unknown>
    4ee4: 6c 00 0a 00  	<unknown>
    4ee8: 0a 00 21 00  	<unknown>
    4eec: 00 00 00 00  	udf	#0
    4ef0: 61 00 6c 00  	<unknown>
    4ef4: 6c 00 6f 00  	<unknown>
    4ef8: 63 00 61 00  	<unknown>
    4efc: 74 00 65 00  	<unknown>
    4f00: 20 00 70 00  	<unknown>
    4f04: 6f 00 6f 00  	<unknown>
    4f08: 6c 00 20 00  	<unknown>
    4f0c: 66 00 6f 00  	<unknown>
    4f10: 72 00 20 00  	<unknown>
    4f14: 66 00 69 00  	<unknown>
    4f18: 6c 00 65 00  	<unknown>
    4f1c: 20 00 72 00  	<unknown>
    4f20: 65 00 61 00  	<unknown>
    4f24: 64 00 20 00  	<unknown>
    4f28: 73 00 75 00  	<unknown>
    4f2c: 63 00 63 00  	<unknown>
    4f30: 65 00 73 00  	<unknown>
    4f34: 73 00 66 00  	<unknown>
    4f38: 75 00 6c 00  	<unknown>
    4f3c: 21 00 0a 00  	<unknown>
    4f40: 0a 00 00 00  	udf	#10
    4f44: 00 00 00 00  	udf	#0
    4f48: 66 00 69 00  	<unknown>
    4f4c: 6c 00 65 00  	<unknown>
    4f50: 20 00 72 00  	<unknown>
    4f54: 65 00 61 00  	<unknown>
    4f58: 64 00 20 00  	<unknown>
    4f5c: 77 00 69 00  	<unknown>
    4f60: 74 00 68 00  	<unknown>
    4f64: 20 00 55 00  	<unknown>
    4f68: 45 00 46 00  	<unknown>
    4f6c: 49 00 53 00  	<unknown>
    4f70: 65 00 6c 00  	<unknown>
    4f74: 66 00 52 00  	<unknown>
    4f78: 65 00 70 00  	<unknown>
    4f7c: 2e 00 65 00  	<unknown>
    4f80: 66 00 69 00  	<unknown>
    4f84: 20 00 73 00  	<unknown>
    4f88: 75 00 63 00  	<unknown>
    4f8c: 63 00 65 00  	<unknown>
    4f90: 73 00 73 00  	<unknown>
    4f94: 66 00 75 00  	<unknown>
    4f98: 6c 00 21 00  	<unknown>
    4f9c: 20 00 0a 00  	<unknown>
    4fa0: 0a 00 00 00  	udf	#10
    4fa4: 00 00 00 00  	udf	#0
    4fa8: 5c 00 34 00  	<unknown>
    4fac: 2e 00 65 00  	<unknown>
    4fb0: 66 00 69 00  	<unknown>
    4fb4: 00 00 00 00  	udf	#0
    4fb8: 65 00 72 00  	<unknown>
    4fbc: 72 00 6f 00  	<unknown>
    4fc0: 72 00 20 00  	<unknown>
    4fc4: 77 00 69 00  	<unknown>
    4fc8: 74 00 68 00  	<unknown>
    4fcc: 20 00 63 00  	<unknown>
    4fd0: 72 00 65 00  	<unknown>
    4fd4: 61 00 74 00  	<unknown>
    4fd8: 65 00 20 00  	<unknown>
    4fdc: 66 00 69 00  	<unknown>
    4fe0: 6c 00 65 00  	<unknown>
    4fe4: 20 00 63 00  	<unknown>
    4fe8: 61 00 6c 00  	<unknown>
    4fec: 6c 00 2e 00  	<unknown>
    4ff0: 2e 00 2e 00  	<unknown>
    4ff4: 20 00 0a 00  	<unknown>
    4ff8: 0a 00 00 00  	udf	#10
    4ffc: 00 00 00 00  	udf	#0
    5000: 79 00 61 00  	<unknown>
    5004: 79 00 20 00  	<unknown>
    5008: 63 00 72 00  	<unknown>
    500c: 65 00 61 00  	<unknown>
    5010: 74 00 65 00  	<unknown>
    5014: 20 00 66 00  	<unknown>
    5018: 69 00 6c 00  	<unknown>
    501c: 65 00 20 00  	<unknown>
    5020: 63 00 61 00  	<unknown>
    5024: 6c 00 6c 00  	<unknown>
    5028: 20 00 77 00  	<unknown>
    502c: 61 00 73 00  	<unknown>
    5030: 20 00 73 00  	<unknown>
    5034: 75 00 63 00  	<unknown>
    5038: 63 00 65 00  	<unknown>
    503c: 73 00 73 00  	<unknown>
    5040: 66 00 75 00  	<unknown>
    5044: 6c 00 21 00  	<unknown>
    5048: 21 00 0a 00  	<unknown>
    504c: 0a 00 00 00  	udf	#10
    5050: 65 00 72 00  	<unknown>
    5054: 72 00 6f 00  	<unknown>
    5058: 72 00 20 00  	<unknown>
    505c: 77 00 69 00  	<unknown>
    5060: 74 00 68 00  	<unknown>
    5064: 20 00 77 00  	<unknown>
    5068: 72 00 69 00  	<unknown>
    506c: 74 00 69 00  	<unknown>
    5070: 6e 00 67 00  	<unknown>
    5074: 20 00 6e 00  	<unknown>
    5078: 65 00 77 00  	<unknown>
    507c: 20 00 66 00  	<unknown>
    5080: 69 00 6c 00  	<unknown>
    5084: 65 00 2e 00  	<unknown>
    5088: 2e 00 2e 00  	<unknown>
    508c: 20 00 0a 00  	<unknown>
    5090: 0a 00 00 00  	udf	#10
    5094: 00 00 00 00  	udf	#0
    5098: 79 00 61 00  	<unknown>
    509c: 79 00 20 00  	<unknown>
    50a0: 77 00 72 00  	<unknown>
    50a4: 69 00 74 00  	<unknown>
    50a8: 65 00 20 00  	<unknown>
    50ac: 66 00 69 00  	<unknown>
    50b0: 6c 00 65 00  	<unknown>
    50b4: 20 00 63 00  	<unknown>
    50b8: 61 00 6c 00  	<unknown>
    50bc: 6c 00 20 00  	<unknown>
    50c0: 77 00 61 00  	<unknown>
    50c4: 73 00 20 00  	<unknown>
    50c8: 73 00 75 00  	<unknown>
    50cc: 63 00 63 00  	<unknown>
    50d0: 65 00 73 00  	<unknown>
    50d4: 73 00 66 00  	<unknown>
    50d8: 75 00 6c 00  	<unknown>
    50dc: 21 00 21 00  	<unknown>
    50e0: 0a 00 0a 00  	<unknown>
    50e4: 00 00 00 00  	udf	#0
    50e8: 65 00 72 00  	<unknown>
    50ec: 72 00 6f 00  	<unknown>
    50f0: 72 00 20 00  	<unknown>
    50f4: 77 00 69 00  	<unknown>
    50f8: 74 00 68 00  	<unknown>
    50fc: 20 00 63 00  	<unknown>
    5100: 6c 00 6f 00  	<unknown>
    5104: 73 00 65 00  	<unknown>
    5108: 20 00 66 00  	<unknown>
    510c: 69 00 6c 00  	<unknown>
    5110: 65 00 20 00  	<unknown>
    5114: 63 00 61 00  	<unknown>
    5118: 6c 00 6c 00  	<unknown>
    511c: 2e 00 2e 00  	<unknown>
    5120: 2e 00 20 00  	<unknown>
    5124: 0a 00 0a 00  	<unknown>
		...
    5130: 20 00 68 00  	<unknown>
    5134: 6d 00 6d 00  	<unknown>
    5138: 20 00 6f 00  	<unknown>
    513c: 70 00 65 00  	<unknown>
    5140: 6e 00 20 00  	<unknown>
    5144: 72 00 6f 00  	<unknown>
    5148: 6f 00 74 00  	<unknown>
    514c: 20 00 76 00  	<unknown>
    5150: 6f 00 6c 00  	<unknown>
    5154: 75 00 6d 00  	<unknown>
    5158: 20 00 75 00  	<unknown>
    515c: 6e 00 73 00  	<unknown>
    5160: 75 00 63 00  	<unknown>
    5164: 63 00 65 00  	<unknown>
    5168: 73 00 73 00  	<unknown>
    516c: 66 00 75 00  	<unknown>
    5170: 6c 00 2e 00  	<unknown>
    5174: 2e 00 2e 00  	<unknown>
    5178: 20 00 73 00  	<unknown>
    517c: 6f 00 6d 00  	<unknown>
    5180: 65 00 74 00  	<unknown>
    5184: 68 00 69 00  	<unknown>
    5188: 6e 00 67 00  	<unknown>
    518c: 20 00 67 00  	<unknown>
    5190: 6f 00 74 00  	<unknown>
    5194: 20 00 65 00  	<unknown>
    5198: 66 00 66 00  	<unknown>
    519c: 65 00 64 00  	<unknown>
    51a0: 2e 00 00 00  	udf	#46
    51a4: 00 00 00 00  	udf	#0
    51a8: 20 00 68 00  	<unknown>
    51ac: 6d 00 6d 00  	<unknown>
    51b0: 20 00 73 00  	<unknown>
    51b4: 6f 00 6d 00  	<unknown>
    51b8: 65 00 74 00  	<unknown>
    51bc: 68 00 69 00  	<unknown>
    51c0: 6e 00 67 00  	<unknown>
    51c4: 20 00 67 00  	<unknown>
    51c8: 6f 00 74 00  	<unknown>
    51cc: 20 00 65 00  	<unknown>
    51d0: 66 00 66 00  	<unknown>
    51d4: 65 00 64 00  	<unknown>
    51d8: 2e 00 00 00  	udf	#46
    51dc: 00 00 00 00  	udf	#0
    51e0: 30 31 32 33  	<unknown>
    51e4: 34 35 36 37  	tbnz	w20, #6, 0x1888 <.text+0x888>
    51e8: 38 39 41 42  	<unknown>
    51ec: 43 44 45 46  	<unknown>
    51f0: 53 75 63 63  	<unknown>
    51f4: 65 73 73 00  	<unknown>
		...
    5208: 00 57 61 72  	<unknown>
    520c: 6e 69 6e 67  	<unknown>
    5210: 20 55 6e 6b  	<unknown>
    5214: 6e 6f 77 6e  	umin	v14.8h, v27.8h, v23.8h
    5218: 20 47 6c 79  	ldrh	w0, [x25, #5666]
    521c: 70 68 00 00  	udf	#26736
    5220: 00 00 57 61  	<unknown>
    5224: 72 6e 69 6e  	umin	v18.8h, v19.8h, v9.8h
    5228: 67 20 44 65  	<unknown>
    522c: 6c 65 74 65  	<unknown>
    5230: 20 46 61 69  	ldpsw	x0, x17, [x17, #-248]
    5234: 6c 75 72 65  	<unknown>
    5238: 00 00 00 57  	<unknown>
    523c: 61 72 6e 69  	ldpsw	x1, x28, [x19, #-144]
    5240: 6e 67 20 57  	<unknown>
    5244: 72 69 74 65  	<unknown>
    5248: 20 46 61 69  	ldpsw	x0, x17, [x17, #-248]
    524c: 6c 75 72 65  	<unknown>
    5250: 00 00 00 00  	udf	#0
    5254: 57 61 72 6e  	rsubhn2	v23.8h, v10.4s, v18.4s
    5258: 69 6e 67 20  	<unknown>
    525c: 42 75 66 66  	<unknown>
    5260: 65 72 20 54  	b.pl	0x460ac
    5264: 6f 6f 20 53  	<unknown>
    5268: 6d 61 6c 6c  	ldnp	d13, d24, [x11, #-320]
    526c: 00 57 61 72  	<unknown>
    5270: 6e 69 6e 67  	<unknown>
    5274: 20 53 74 61  	<unknown>
    5278: 6c 65 20 44  	<unknown>
    527c: 61 74 61 00  	<unknown>
    5280: 00 00 00 00  	udf	#0
    5284: 00 00 57 61  	<unknown>
    5288: 72 6e 69 6e  	umin	v18.8h, v19.8h, v9.8h
    528c: 67 20 46 69  	ldpsw	x7, x8, [x3, #48]
    5290: 6c 65 20 53  	<unknown>
    5294: 79 73 74 65  	<unknown>
    5298: 6d 00 00 00  	udf	#109
    529c: 00 00 00 57  	<unknown>
    52a0: 61 72 6e 69  	ldpsw	x1, x28, [x19, #-144]
    52a4: 6e 67 20 52  	eor	w14, w27, #0x3ffffff
    52a8: 65 73 65 74  	<unknown>
    52ac: 20 52 65 71  	subs	w0, w17, #2388, lsl #12 // =9781248
    52b0: 75 69 72 65  	<unknown>
    52b4: 64 00 00 00  	udf	#100
    52b8: 4c 6f 61 64  	<unknown>
    52bc: 20 45 72 72  	<unknown>
    52c0: 6f 72 00 00  	udf	#29295
		...
    52cc: 00 49 6e 76  	<unknown>
    52d0: 61 6c 69 64  	<unknown>
    52d4: 20 50 61 72  	<unknown>
    52d8: 61 6d 65 74  	<unknown>
    52dc: 65 72 00 00  	udf	#29285
    52e0: 00 00 55 6e  	<unknown>
    52e4: 73 75 70 70  	adr	x19, #921263
    52e8: 6f 72 74 65  	<unknown>
    52ec: 64 00 00 00  	udf	#100
    52f0: 00 00 00 00  	udf	#0
    52f4: 00 00 00 42  	<unknown>
    52f8: 61 64 20 42  	<unknown>
    52fc: 75 66 66 65  	<unknown>
    5300: 72 20 53 69  	ldpsw	x18, x8, [x3, #152]
    5304: 7a 65 00 00  	udf	#25978
    5308: 00 00 00 00  	udf	#0
    530c: 42 75 66 66  	<unknown>
    5310: 65 72 20 54  	b.pl	0x4615c
    5314: 6f 6f 20 53  	<unknown>
    5318: 6d 61 6c 6c  	ldnp	d13, d24, [x11, #-320]
    531c: 00 00 00 00  	udf	#0
    5320: 00 4e 6f 74  	<unknown>
    5324: 20 52 65 61  	<unknown>
    5328: 64 79 00 00  	udf	#31076
		...
    5334: 00 00 44 65  	<unknown>
    5338: 76 69 63 65  	<unknown>
    533c: 20 45 72 72  	<unknown>
    5340: 6f 72 00 00  	udf	#29295
    5344: 00 00 00 00  	udf	#0
    5348: 00 00 00 57  	<unknown>
    534c: 72 69 74 65  	<unknown>
    5350: 20 50 72 6f  	<unknown>
    5354: 74 65 63 74  	<unknown>
    5358: 65 64 00 00  	udf	#25701
    535c: 00 00 00 00  	udf	#0
    5360: 4f 75 74 20  	<unknown>
    5364: 6f 66 20 52  	eor	w15, w19, #0x3ffffff
    5368: 65 73 6f 75  	<unknown>
    536c: 72 63 65 73  	<unknown>
    5370: 00 00 00 00  	udf	#0
    5374: 00 56 6f 6c  	ldnp	d0, d21, [x16, #-272]
    5378: 75 6d 65 20  	<unknown>
    537c: 43 6f 72 72  	<unknown>
    5380: 75 70 74 00  	<unknown>
    5384: 00 00 00 00  	udf	#0
    5388: 00 00 56 6f  	mla	v0.8h, v0.8h, v6.h[1]
    538c: 6c 75 6d 65  	<unknown>
    5390: 20 46 75 6c  	ldnp	d0, d17, [x17, #-176]
    5394: 6c 00 00 00  	udf	#108
    5398: 00 00 00 00  	udf	#0
    539c: 00 00 00 4e  	tbl	v0.16b, { v0.16b }, v0.16b
    53a0: 6f 20 4d 65  	<unknown>
    53a4: 64 69 61 00  	<unknown>
		...
    53b4: 4d 65 64 69  	ldpsw	x13, x25, [x10, #-224]
    53b8: 61 20 63 68  	<unknown>
    53bc: 61 6e 67 65  	<unknown>
    53c0: 64 00 00 00  	udf	#100
    53c4: 00 00 00 00  	udf	#0
    53c8: 00 4e 6f 74  	<unknown>
    53cc: 20 46 6f 75  	<unknown>
    53d0: 6e 64 00 00  	udf	#25710
		...
    53dc: 00 00 41 63  	<unknown>
    53e0: 63 65 73 73  	<unknown>
    53e4: 20 44 65 6e  	ushl	v0.8h, v1.8h, v5.8h
    53e8: 69 65 64 00  	<unknown>
    53ec: 00 00 00 00  	udf	#0
    53f0: 00 00 00 4e  	tbl	v0.16b, { v0.16b }, v0.16b
    53f4: 6f 20 52 65  	<unknown>
    53f8: 73 70 6f 6e  	uabdl2	v19.4s, v3.8h, v15.8h
    53fc: 73 65 00 00  	udf	#25971
		...
    5408: 4e 6f 20 6d  	stp	d14, d27, [x26, #-512]
    540c: 61 70 70 69  	ldpsw	x1, x28, [x3, #-128]
    5410: 6e 67 00 00  	udf	#26478
		...
    541c: 00 54 69 6d  	ldp	d0, d21, [x0, #-368]
    5420: 65 20 6f 75  	<unknown>
    5424: 74 00 00 00  	udf	#116
		...
    5430: 00 00 4e 6f  	mla	v0.8h, v0.8h, v14.h[0]
    5434: 74 20 73 74  	<unknown>
    5438: 61 72 74 65  	<unknown>
    543c: 64 00 00 00  	udf	#100
    5440: 00 00 00 00  	udf	#0
    5444: 00 00 00 41  	<unknown>
    5448: 6c 72 65 61  	<unknown>
    544c: 64 79 20 73  	<unknown>
    5450: 74 61 72 74  	<unknown>
    5454: 65 64 00 00  	udf	#25701
    5458: 00 00 00 00  	udf	#0
    545c: 41 62 6f 72  	<unknown>
    5460: 74 65 64 00  	<unknown>
		...
    5470: 00 49 43 4d  	<unknown>
    5474: 50 20 45 72  	<unknown>
    5478: 72 6f 72 00  	<unknown>
		...
    5484: 00 00 54 46  	<unknown>
    5488: 54 50 20 45  	<unknown>
    548c: 72 72 6f 72  	<unknown>
		...
    5498: 00 00 00 50  	adr	x0, #2
    549c: 72 6f 74 6f  	<unknown>
    54a0: 63 6f 6c 20  	<unknown>
    54a4: 45 72 72 6f  	<unknown>
    54a8: 72 00 00 00  	udf	#114
    54ac: 00 00 00 00  	udf	#0
    54b0: 49 6e 63 6f  	<unknown>
    54b4: 6d 70 61 74  	<unknown>
    54b8: 69 62 6c 65  	<unknown>
    54bc: 20 56 65 72  	<unknown>
    54c0: 73 69 6f 6e  	<unknown>
    54c4: 00 53 65 63  	<unknown>
    54c8: 75 72 69 74  	<unknown>
    54cc: 79 20 56 69  	ldpsw	x25, x8, [x3, #176]
    54d0: 6f 6c 61 74  	<unknown>
    54d4: 69 6f 6e 00  	<unknown>
    54d8: 00 00 43 52  	<unknown>
    54dc: 43 20 45 72  	<unknown>
    54e0: 72 6f 72 00  	<unknown>
		...
    54ec: 00 00 00 45  	<unknown>
    54f0: 6e 64 20 6f  	sqshlu	v14.4s, v3.4s, #0
    54f4: 66 20 4d 65  	<unknown>
    54f8: 64 69 61 00  	<unknown>
		...
    5504: 52 65 73 65  	<unknown>
    5508: 72 76 65 64  	<unknown>
    550c: 20 28 32 39  	strb	w0, [x1, #3210]
    5510: 29 00 00 00  	udf	#41
    5514: 00 00 00 00  	udf	#0
    5518: 00 52 65 73  	<unknown>
    551c: 65 72 76 65  	<unknown>
    5520: 64 20 28 33  	<unknown>
    5524: 30 29 00 00  	udf	#10544
    5528: 00 00 00 00  	udf	#0
    552c: 00 00 45 6e  	<unknown>
    5530: 64 20 6f 66  	<unknown>
    5534: 20 46 69 6c  	ldnp	d0, d17, [x17, #-368]
    5538: 65 00 00 00  	udf	#101
    553c: 00 00 00 00  	udf	#0
    5540: 00 00 00 49  	<unknown>
    5544: 6e 76 61 6c  	ldnp	d14, d29, [x19, #-496]
    5548: 69 64 20 4c  	<unknown>
    554c: 61 6e 67 75  	<unknown>
    5550: 61 67 65 00  	<unknown>
    5554: 00 00 00 00  	udf	#0
    5558: 43 6f 6d 70  	adr	x3, #896491
    555c: 72 6f 6d 69  	ldpsw	x18, x27, [x27, #-152]
    5560: 73 65 64 20  	<unknown>
    5564: 44 61 74 61  	<unknown>
    5568: 00 00 00 00  	udf	#0
    556c: 00 49 50 20  	<unknown>
    5570: 41 64 64 72  	<unknown>
    5574: 65 73 73 20  	<unknown>
    5578: 43 6f 6e 66  	<unknown>
    557c: 6c 69 63 74  	<unknown>
    5580: 00 00 48 54  	b.eq	0x95580
    5584: 54 50 20 45  	<unknown>
    5588: 72 72 6f 72  	<unknown>
		...
    5598: 76 02 00 00  	udf	#630
    559c: 97 02 00 00  	udf	#663
    55a0: 97 02 00 00  	udf	#663
    55a4: 51 02 00 00  	udf	#593
    55a8: 97 02 00 00  	udf	#663
    55ac: 97 02 00 00  	udf	#663
    55b0: 97 02 00 00  	udf	#663
    55b4: 97 02 00 00  	udf	#663
    55b8: 97 02 00 00  	udf	#663
    55bc: 97 02 00 00  	udf	#663
    55c0: 97 02 00 00  	udf	#663
    55c4: 97 02 00 00  	udf	#663
    55c8: 97 02 00 00  	udf	#663
    55cc: 97 02 00 00  	udf	#663
    55d0: 97 02 00 00  	udf	#663
    55d4: 97 02 00 00  	udf	#663
    55d8: 97 02 00 00  	udf	#663
    55dc: 97 02 00 00  	udf	#663
    55e0: 97 02 00 00  	udf	#663
    55e4: 97 02 00 00  	udf	#663
    55e8: 97 02 00 00  	udf	#663
    55ec: 97 02 00 00  	udf	#663
    55f0: 97 02 00 00  	udf	#663
    55f4: 97 02 00 00  	udf	#663
    55f8: 97 02 00 00  	udf	#663
    55fc: 97 02 00 00  	udf	#663
    5600: 97 02 00 00  	udf	#663
    5604: 97 02 00 00  	udf	#663
    5608: 97 02 00 00  	udf	#663
    560c: 97 02 00 00  	udf	#663
    5610: 97 02 00 00  	udf	#663
    5614: 97 02 00 00  	udf	#663
    5618: 97 02 00 00  	udf	#663
    561c: 97 02 00 00  	udf	#663
    5620: 97 02 00 00  	udf	#663
    5624: 97 02 00 00  	udf	#663
    5628: 97 02 00 00  	udf	#663
    562c: 97 02 00 00  	udf	#663
    5630: 97 02 00 00  	udf	#663
    5634: 97 02 00 00  	udf	#663
    5638: 97 02 00 00  	udf	#663
    563c: 97 02 00 00  	udf	#663
    5640: 97 02 00 00  	udf	#663
    5644: 97 02 00 00  	udf	#663
    5648: 97 02 00 00  	udf	#663
    564c: 97 02 00 00  	udf	#663
    5650: 97 02 00 00  	udf	#663
    5654: 97 02 00 00  	udf	#663
    5658: 97 02 00 00  	udf	#663
    565c: 97 02 00 00  	udf	#663
    5660: 97 02 00 00  	udf	#663
    5664: 97 02 00 00  	udf	#663
    5668: 97 02 00 00  	udf	#663
    566c: 97 02 00 00  	udf	#663
    5670: 97 02 00 00  	udf	#663
    5674: 97 02 00 00  	udf	#663
    5678: 97 02 00 00  	udf	#663
    567c: 97 02 00 00  	udf	#663
    5680: 97 02 00 00  	udf	#663
    5684: 97 02 00 00  	udf	#663
    5688: 97 02 00 00  	udf	#663
    568c: 97 02 00 00  	udf	#663
    5690: 97 02 00 00  	udf	#663
    5694: 97 02 00 00  	udf	#663
    5698: 97 02 00 00  	udf	#663
    569c: 97 02 00 00  	udf	#663
    56a0: 97 02 00 00  	udf	#663
    56a4: 97 02 00 00  	udf	#663
    56a8: 97 02 00 00  	udf	#663
    56ac: 97 02 00 00  	udf	#663
    56b0: 97 02 00 00  	udf	#663
    56b4: 97 02 00 00  	udf	#663
    56b8: 97 02 00 00  	udf	#663
    56bc: fc 00 00 00  	udf	#252
    56c0: 97 02 00 00  	udf	#663
    56c4: 97 02 00 00  	udf	#663
    56c8: 97 02 00 00  	udf	#663
    56cc: 97 02 00 00  	udf	#663
    56d0: 07 00 00 00  	udf	#7
    56d4: 97 02 00 00  	udf	#663
    56d8: 97 02 00 00  	udf	#663
    56dc: 97 02 00 00  	udf	#663
    56e0: 97 02 00 00  	udf	#663
    56e4: 97 02 00 00  	udf	#663
    56e8: 97 02 00 00  	udf	#663
    56ec: 97 02 00 00  	udf	#663
    56f0: 97 02 00 00  	udf	#663
    56f4: ff 00 00 00  	udf	#255
    56f8: 97 02 00 00  	udf	#663
    56fc: 2e 01 00 00  	udf	#302
    5700: 17 00 00 00  	udf	#23
    5704: 97 02 00 00  	udf	#663
    5708: 97 02 00 00  	udf	#663
    570c: 57 01 00 00  	udf	#343
    5710: 97 02 00 00  	udf	#663
    5714: 97 02 00 00  	udf	#663
    5718: 97 02 00 00  	udf	#663
    571c: 97 02 00 00  	udf	#663
    5720: 97 02 00 00  	udf	#663
    5724: 97 02 00 00  	udf	#663
    5728: 97 02 00 00  	udf	#663
    572c: 97 02 00 00  	udf	#663
    5730: 00 00 00 00  	udf	#0
    5734: 97 02 00 00  	udf	#663
    5738: fb 01 00 00  	udf	#507
    573c: fc 00 00 00  	udf	#252
    5740: b7 01 00 00  	udf	#439
    5744: 0d 00 00 00  	udf	#13
    5748: 97 02 00 00  	udf	#663
    574c: 97 02 00 00  	udf	#663
    5750: 0a 00 00 00  	udf	#10
		...

Disassembly of section .data:

0000000000006000 <.data>:
    6000: f8 42 00 00  	udf	#17144
		...
    606c: 02 00 00 00  	udf	#2
    6070: 8e 00 00 00  	udf	#142
    6074: 7c 60 00 00  	udf	#24700
    6078: 7c 60 00 00  	udf	#24700
    607c: 4e 42 31 30  	adr	x14, #403529
		...
    608c: 2f 55 73 65  	<unknown>
    6090: 72 73 2f 6e  	uabdl2	v18.8h, v27.16b, v15.16b
    6094: 69 6b 61 2f  	umlsl	v9.4s, v27.4h, v1.h[6]
    6098: 75 65 66 69  	ldpsw	x21, x25, [x11, #-208]
    609c: 5f 74 65 73  	<unknown>
    60a0: 74 69 6e 67  	<unknown>
    60a4: 2f 65 64 6b  	<unknown>
    60a8: 32 2f 42 75  	<unknown>
    60ac: 69 6c 64 2f  	<unknown>
    60b0: 42 61 72 65  	<unknown>
    60b4: 42 6f 6e 65  	<unknown>
    60b8: 73 50 6b 67  	<unknown>
    60bc: 2f 44 45 42  	<unknown>
    60c0: 55 47 5f 47  	<unknown>
    60c4: 43 43 2f 41  	<unknown>
    60c8: 41 52 43 48  	ldxrh	w1, [x18]
    60cc: 36 34 2f 42  	<unknown>
    60d0: 61 72 65 42  	<unknown>
    60d4: 6f 6e 65 73  	<unknown>
    60d8: 50 6b 67 2f  	umlsl	v16.4s, v26.4h, v7.h[6]
    60dc: 55 45 46 49  	<unknown>
    60e0: 53 65 6c 66  	<unknown>
    60e4: 52 65 70 2f  	<unknown>
    60e8: 55 45 46 49  	<unknown>
    60ec: 53 65 6c 66  	<unknown>
    60f0: 52 65 70 2f  	<unknown>
    60f4: 44 45 42 55  	<unknown>
    60f8: 47 2f 55 45  	<unknown>
    60fc: 46 49 53 65  	<unknown>
    6100: 6c 66 52 65  	<unknown>
    6104: 70 2e 64 6c  	ldnp	d16, d11, [x19, #-448]
    6108: 6c 00 00 00  	udf	#108
		...

Disassembly of section .reloc:

0000000000007000 <.reloc>:
    7000: 00 60 00 00  	udf	#24576
    7004: 00 10 00 00  	udf	#4096
    7008: 00 a0 00 00  	udf	#40960
		...
